0000   78         SEI
0001   D8         CLD
0002   A9 10      LDA #$10
0004   8D 00 20   STA $2000
0007   A2 FF      LDX #$FF
0009   9A         TXS
000A   AD 02 20   LDA $2002
000D   10 FB      BPL $000A
000F   AD 02 20   LDA $2002
0012   10 FB      BPL $000F
0014   A0 FE      LDY #$FE
0016   A2 05      LDX #$05
0018   BD D7 07   LDA $07D7,X
001B   C9 0A      CMP #$0A
001D   B0 0C      BCS $002B
001F   CA         DEX
0020   10 F6      BPL $0018
0022   AD FF 07   LDA $07FF
0025   C9 A5      CMP #$A5
0027   D0 02      BNE $002B
0029   A0 D6      LDY #$D6
002B   20 CC 90   JSR $90CC
002E   8D 11 40   STA $4011
0031   8D 70 07   STA $0770
0034   A9 A5      LDA #$A5
0036   8D FF 07   STA $07FF
0039   8D A7 07   STA $07A7
003C   A9 0F      LDA #$0F
003E   8D 15 40   STA $4015
0041   A9 06      LDA #$06
0043   8D 01 20   STA $2001
0046   20 20 82   JSR $8220
0049   20 19 8E   JSR $8E19
004C   EE 74 07   INC $0774
004F   AD 78 07   LDA $0778
0052   09 80      ORA #$80
0054   20 ED 8E   JSR $8EED
0057   4C 57 80   JMP $8057
005A   01 A4      ORA ($A4,X)
005C   C8         INY
005D   EC 10 00   CPX $0010
0060   41 41      EOR ($41,X)
0062   4C 34 3C   JMP $3C34
0065   44         ???
0066   54         ???
0067   68         PLA
0068   7C         ???
0069   A8         TAY
006A   BF         ???
006B   DE EF 03   DEC $03EF,X
006E   8C 8C 8C   STY $8C8C
0071   8D 03 03   STA $0303
0074   03         ???
0075   8D 8D 8D   STA $8D8D
0078   8D 8D 8D   STA $8D8D
007B   8D 8D 8D   STA $8D8D
007E   8D 8D 00   STA $008D
0081   40         RTI
0082   AD 78 07   LDA $0778
0085   29 7F      AND #$7F
0087   8D 78 07   STA $0778
008A   29 7E      AND #$7E
008C   8D 00 20   STA $2000
008F   AD 79 07   LDA $0779
0092   29 E6      AND #$E6
0094   AC 74 07   LDY $0774
0097   D0 05      BNE $009E
0099   AD 79 07   LDA $0779
009C   09 1E      ORA #$1E
009E   8D 79 07   STA $0779
00A1   29 E7      AND #$E7
00A3   8D 01 20   STA $2001
00A6   AE 02 20   LDX $2002
00A9   A9 00      LDA #$00
00AB   20 E6 8E   JSR $8EE6
00AE   8D 03 20   STA $2003
00B1   A9 02      LDA #$02
00B3   8D 14 40   STA $4014
00B6   AE 73 07   LDX $0773
00B9   BD 5A 80   LDA $805A,X
00BC   85 00      STA $00
00BE   BD 6D 80   LDA $806D,X
00C1   85 01      STA $01
00C3   20 DD 8E   JSR $8EDD
00C6   A0 00      LDY #$00
00C8   AE 73 07   LDX $0773
00CB   E0 06      CPX #$06
00CD   D0 01      BNE $00D0
00CF   C8         INY
00D0   BE 80 80   LDX $8080,Y
00D3   A9 00      LDA #$00
00D5   9D 00 03   STA $0300,X
00D8   9D 01 03   STA $0301,X
00DB   8D 73 07   STA $0773
00DE   AD 79 07   LDA $0779
00E1   8D 01 20   STA $2001
00E4   20 D0 F2   JSR $F2D0
00E7   20 5C 8E   JSR $8E5C
00EA   20 82 81   JSR $8182
00ED   20 97 8F   JSR $8F97
00F0   AD 76 07   LDA $0776
00F3   4A         LSR A
00F4   B0 25      BCS $011B
00F6   AD 47 07   LDA $0747
00F9   F0 05      BEQ $0100
00FB   CE 47 07   DEC $0747
00FE   D0 19      BNE $0119
0100   A2 14      LDX #$14
0102   CE 7F 07   DEC $077F
0105   10 07      BPL $010E
0107   A9 14      LDA #$14
0109   8D 7F 07   STA $077F
010C   A2 23      LDX #$23
010E   BD 80 07   LDA $0780,X
0111   F0 03      BEQ $0116
0113   DE 80 07   DEC $0780,X
0116   CA         DEX
0117   10 F5      BPL $010E
0119   E6 09      INC $09
011B   A2 00      LDX #$00
011D   A0 07      LDY #$07
011F   AD A7 07   LDA $07A7
0122   29 02      AND #$02
0124   85 00      STA $00
0126   AD A8 07   LDA $07A8
0129   29 02      AND #$02
012B   45 00      EOR $00
012D   18         CLC
012E   F0 01      BEQ $0131
0130   38         SEC
0131   7E A7 07   ROR $07A7,X
0134   E8         INX
0135   88         DEY
0136   D0 F9      BNE $0131
0138   AD 22 07   LDA $0722
013B   F0 1F      BEQ $015C
013D   AD 02 20   LDA $2002
0140   29 40      AND #$40
0142   D0 F9      BNE $013D
0144   AD 76 07   LDA $0776
0147   4A         LSR A
0148   B0 06      BCS $0150
014A   20 23 82   JSR $8223
014D   20 C6 81   JSR $81C6
0150   AD 02 20   LDA $2002
0153   29 40      AND #$40
0155   F0 F9      BEQ $0150
0157   A0 14      LDY #$14
0159   88         DEY
015A   D0 FD      BNE $0159
015C   AD 3F 07   LDA $073F
015F   8D 05 20   STA $2005
0162   AD 40 07   LDA $0740
0165   8D 05 20   STA $2005
0168   AD 78 07   LDA $0778
016B   48         PHA
016C   8D 00 20   STA $2000
016F   AD 76 07   LDA $0776
0172   4A         LSR A
0173   B0 03      BCS $0178
0175   20 12 82   JSR $8212
0178   AD 02 20   LDA $2002
017B   68         PLA
017C   09 80      ORA #$80
017E   8D 00 20   STA $2000
0181   40         RTI
0182   AD 70 07   LDA $0770
0185   C9 02      CMP #$02
0187   F0 0B      BEQ $0194
0189   C9 01      CMP #$01
018B   D0 38      BNE $01C5
018D   AD 72 07   LDA $0772
0190   C9 03      CMP #$03
0192   D0 31      BNE $01C5
0194   AD 77 07   LDA $0777
0197   F0 04      BEQ $019D
0199   CE 77 07   DEC $0777
019C   60         RTS
019D   AD FC 06   LDA $06FC
01A0   29 10      AND #$10
01A2   F0 19      BEQ $01BD
01A4   AD 76 07   LDA $0776
01A7   29 80      AND #$80
01A9   D0 1A      BNE $01C5
01AB   A9 2B      LDA #$2B
01AD   8D 77 07   STA $0777
01B0   AD 76 07   LDA $0776
01B3   A8         TAY
01B4   C8         INY
01B5   84 FA      STY $FA
01B7   49 01      EOR #$01
01B9   09 80      ORA #$80
01BB   D0 05      BNE $01C2
01BD   AD 76 07   LDA $0776
01C0   29 7F      AND #$7F
01C2   8D 76 07   STA $0776
01C5   60         RTS
01C6   AC 4E 07   LDY $074E
01C9   A9 28      LDA #$28
01CB   85 00      STA $00
01CD   A2 0E      LDX #$0E
01CF   BD E4 06   LDA $06E4,X
01D2   C5 00      CMP $00
01D4   90 0F      BCC $01E5
01D6   AC E0 06   LDY $06E0
01D9   18         CLC
01DA   79 E1 06   ADC $06E1,Y
01DD   90 03      BCC $01E2
01DF   18         CLC
01E0   65 00      ADC $00
01E2   9D E4 06   STA $06E4,X
01E5   CA         DEX
01E6   10 E7      BPL $01CF
01E8   AE E0 06   LDX $06E0
01EB   E8         INX
01EC   E0 03      CPX #$03
01EE   D0 02      BNE $01F2
01F0   A2 00      LDX #$00
01F2   8E E0 06   STX $06E0
01F5   A2 08      LDX #$08
01F7   A0 02      LDY #$02
01F9   B9 E9 06   LDA $06E9,Y
01FC   9D F1 06   STA $06F1,X
01FF   18         CLC
0200   69 08      ADC #$08
0202   9D F2 06   STA $06F2,X
0205   18         CLC
0206   69 08      ADC #$08
0208   9D F3 06   STA $06F3,X
020B   CA         DEX
020C   CA         DEX
020D   CA         DEX
020E   88         DEY
020F   10 E8      BPL $01F9
0211   60         RTS
0212   AD 70 07   LDA $0770
0215   20 04 8E   JSR $8E04
0218   31 82      AND ($82),Y
021A   DC         ???
021B   AE 8B 83   LDX $838B
021E   18         CLC
021F   92         ???
0220   A0 00      LDY #$00
0222   2C A0 04   BIT $04A0
0225   A9 F8      LDA #$F8
0227   99 00 02   STA $0200,Y
022A   C8         INY
022B   C8         INY
022C   C8         INY
022D   C8         INY
022E   D0 F7      BNE $0227
0230   60         RTS
0231   AD 72 07   LDA $0772
0234   20 04 8E   JSR $8E04
0237   CF         ???
0238   8F         ???
0239   67         ???
023A   85 61      STA $61
023C   90 45      BCC $0283
023E   82         ???
023F   04         ???
0240   20 73 01   JSR $0173
0243   00         BRK
0244   00         BRK
0245   A0 00      LDY #$00
0247   AD FC 06   LDA $06FC
024A   0D FD 06   ORA $06FD
024D   C9 10      CMP #$10
024F   F0 04      BEQ $0255
0251   C9 90      CMP #$90
0253   D0 03      BNE $0258
0255   4C D8 82   JMP $82D8
0258   C9 20      CMP #$20
025A   F0 1A      BEQ $0276
025C   AE A2 07   LDX $07A2
025F   D0 0B      BNE $026C
0261   8D 80 07   STA $0780
0264   20 6B 83   JSR $836B
0267   B0 60      BCS $02C9
0269   4C C0 82   JMP $82C0
026C   AE FC 07   LDX $07FC
026F   F0 4A      BEQ $02BB
0271   C9 40      CMP #$40
0273   D0 46      BNE $02BB
0275   C8         INY
0276   AD A2 07   LDA $07A2
0279   F0 4E      BEQ $02C9
027B   A9 18      LDA #$18
027D   8D A2 07   STA $07A2
0280   AD 80 07   LDA $0780
0283   D0 36      BNE $02BB
0285   A9 10      LDA #$10
0287   8D 80 07   STA $0780
028A   C0 01      CPY #$01
028C   F0 0E      BEQ $029C
028E   AD 7A 07   LDA $077A
0291   49 01      EOR #$01
0293   8D 7A 07   STA $077A
0296   20 25 83   JSR $8325
0299   4C BB 82   JMP $82BB
029C   AE 6B 07   LDX $076B
029F   E8         INX
02A0   8A         TXA
02A1   29 07      AND #$07
02A3   8D 6B 07   STA $076B
02A6   20 0E 83   JSR $830E
02A9   BD 3F 82   LDA $823F,X
02AC   9D 00 03   STA $0300,X
02AF   E8         INX
02B0   E0 06      CPX #$06
02B2   30 F5      BMI $02A9
02B4   AC 5F 07   LDY $075F
02B7   C8         INY
02B8   8C 04 03   STY $0304
02BB   A9 00      LDA #$00
02BD   8D FC 06   STA $06FC
02C0   20 EA AE   JSR $AEEA
02C3   A5 0E      LDA $0E
02C5   C9 06      CMP #$06
02C7   D0 44      BNE $030D
02C9   A9 00      LDA #$00
02CB   8D 70 07   STA $0770
02CE   8D 72 07   STA $0772
02D1   8D 22 07   STA $0722
02D4   EE 74 07   INC $0774
02D7   60         RTS
02D8   AC A2 07   LDY $07A2
02DB   F0 EC      BEQ $02C9
02DD   0A         ASL A
02DE   90 06      BCC $02E6
02E0   AD FD 07   LDA $07FD
02E3   20 0E 83   JSR $830E
02E6   20 03 9C   JSR $9C03
02E9   EE 5D 07   INC $075D
02EC   EE 64 07   INC $0764
02EF   EE 57 07   INC $0757
02F2   EE 70 07   INC $0770
02F5   AD FC 07   LDA $07FC
02F8   8D 6A 07   STA $076A
02FB   A9 00      LDA #$00
02FD   8D 72 07   STA $0772
0300   8D A2 07   STA $07A2
0303   A2 17      LDX #$17
0305   A9 00      LDA #$00
0307   9D DD 07   STA $07DD,X
030A   CA         DEX
030B   10 FA      BPL $0307
030D   60         RTS
030E   8D 5F 07   STA $075F
0311   8D 66 07   STA $0766
0314   A2 00      LDX #$00
0316   8E 60 07   STX $0760
0319   8E 67 07   STX $0767
031C   60         RTS
031D   07         ???
031E   22         ???
031F   49 83      EOR #$83
0321   CE 24 24   DEC $2424
0324   00         BRK
0325   A0 07      LDY #$07
0327   B9 1D 83   LDA $831D,Y
032A   99 00 03   STA $0300,Y
032D   88         DEY
032E   10 F7      BPL $0327
0330   AD 7A 07   LDA $077A
0333   F0 0A      BEQ $033F
0335   A9 24      LDA #$24
0337   8D 04 03   STA $0304
033A   A9 CE      LDA #$CE
033C   8D 06 03   STA $0306
033F   60         RTS
0340   01 80      ORA ($80,X)
0342   02         ???
0343   81 41      STA ($41,X)
0345   80         ???
0346   01 42      ORA ($42,X)
0348   C2         ???
0349   02         ???
034A   80         ???
034B   41 C1      EOR ($C1,X)
034D   41 C1      EOR ($C1,X)
034F   01 C1      ORA ($C1,X)
0351   01 02      ORA ($02,X)
0353   80         ???
0354   00         BRK
0355   9B         ???
0356   10 18      BPL $0370
0358   05 2C      ORA $2C
035A   20 24 15   JSR $1524
035D   5A         ???
035E   10 20      BPL $0380
0360   28         PLP
0361   30 20      BMI $0383
0363   10 80      BPL $02E5
0365   20 30 30   JSR $3030
0368   01 FF      ORA ($FF,X)
036A   00         BRK
036B   AE 17 07   LDX $0717
036E   AD 18 07   LDA $0718
0371   D0 0D      BNE $0380
0373   E8         INX
0374   EE 17 07   INC $0717
0377   38         SEC
0378   BD 54 83   LDA $8354,X
037B   8D 18 07   STA $0718
037E   F0 0A      BEQ $038A
0380   BD 3F 83   LDA $833F,X
0383   8D FC 06   STA $06FC
0386   CE 18 07   DEC $0718
0389   18         CLC
038A   60         RTS
038B   20 A0 83   JSR $83A0
038E   AD 72 07   LDA $0772
0391   F0 07      BEQ $039A
0393   A2 00      LDX #$00
0395   86 08      STX $08
0397   20 47 C0   JSR $C047
039A   20 2A F1   JSR $F12A
039D   4C E9 EE   JMP $EEE9
03A0   AD 72 07   LDA $0772
03A3   20 04 8E   JSR $8E04
03A6   EC CF B0   CPX $B0CF
03A9   83         ???
03AA   BD 83 F6   LDA $F683,X
03AD   83         ???
03AE   61 84      ADC ($84,X)
03B0   AE 1B 07   LDX $071B
03B3   E8         INX
03B4   86 34      STX $34
03B6   A9 08      LDA #$08
03B8   85 FC      STA $FC
03BA   4C 4E 87   JMP $874E
03BD   A0 00      LDY #$00
03BF   84 35      STY $35
03C1   A5 6D      LDA $6D
03C3   C5 34      CMP $34
03C5   D0 06      BNE $03CD
03C7   A5 86      LDA $86
03C9   C9 60      CMP #$60
03CB   B0 03      BCS $03D0
03CD   E6 35      INC $35
03CF   C8         INY
03D0   98         TYA
03D1   20 E6 B0   JSR $B0E6
03D4   AD 1A 07   LDA $071A
03D7   C5 34      CMP $34
03D9   F0 16      BEQ $03F1
03DB   AD 68 07   LDA $0768
03DE   18         CLC
03DF   69 80      ADC #$80
03E1   8D 68 07   STA $0768
03E4   A9 01      LDA #$01
03E6   69 00      ADC #$00
03E8   A8         TAY
03E9   20 C4 AF   JSR $AFC4
03EC   20 6F AF   JSR $AF6F
03EF   E6 35      INC $35
03F1   A5 35      LDA $35
03F3   F0 68      BEQ $045D
03F5   60         RTS
03F6   AD 49 07   LDA $0749
03F9   D0 48      BNE $0443
03FB   AD 19 07   LDA $0719
03FE   F0 18      BEQ $0418
0400   C9 09      CMP #$09
0402   B0 3F      BCS $0443
0404   AC 5F 07   LDY $075F
0407   C0 07      CPY #$07
0409   D0 09      BNE $0414
040B   C9 03      CMP #$03
040D   90 34      BCC $0443
040F   E9 01      SBC #$01
0411   4C 18 84   JMP $8418
0414   C9 02      CMP #$02
0416   90 2B      BCC $0443
0418   A8         TAY
0419   D0 08      BNE $0423
041B   AD 53 07   LDA $0753
041E   F0 14      BEQ $0434
0420   C8         INY
0421   D0 11      BNE $0434
0423   C8         INY
0424   AD 5F 07   LDA $075F
0427   C9 07      CMP #$07
0429   F0 09      BEQ $0434
042B   88         DEY
042C   C0 04      CPY #$04
042E   B0 26      BCS $0456
0430   C0 03      CPY #$03
0432   B0 0F      BCS $0443
0434   C0 03      CPY #$03
0436   D0 04      BNE $043C
0438   A9 04      LDA #$04
043A   85 FC      STA $FC
043C   98         TYA
043D   18         CLC
043E   69 0C      ADC #$0C
0440   8D 73 07   STA $0773
0443   AD 49 07   LDA $0749
0446   18         CLC
0447   69 04      ADC #$04
0449   8D 49 07   STA $0749
044C   AD 19 07   LDA $0719
044F   69 00      ADC #$00
0451   8D 19 07   STA $0719
0454   C9 07      CMP #$07
0456   90 08      BCC $0460
0458   A9 06      LDA #$06
045A   8D A1 07   STA $07A1
045D   EE 72 07   INC $0772
0460   60         RTS
0461   AD A1 07   LDA $07A1
0464   D0 20      BNE $0486
0466   AC 5F 07   LDY $075F
0469   C0 07      CPY #$07
046B   B0 1A      BCS $0487
046D   A9 00      LDA #$00
046F   8D 60 07   STA $0760
0472   8D 5C 07   STA $075C
0475   8D 72 07   STA $0772
0478   EE 5F 07   INC $075F
047B   20 03 9C   JSR $9C03
047E   EE 57 07   INC $0757
0481   A9 01      LDA #$01
0483   8D 70 07   STA $0770
0486   60         RTS
0487   AD FC 06   LDA $06FC
048A   0D FD 06   ORA $06FD
048D   29 40      AND #$40
048F   F0 0D      BEQ $049E
0491   A9 01      LDA #$01
0493   8D FC 07   STA $07FC
0496   A9 FF      LDA #$FF
0498   8D 5A 07   STA $075A
049B   20 48 92   JSR $9248
049E   60         RTS
049F   FF         ???
04A0   FF         ???
04A1   F6 FB      INC $FB,X
04A3   F7         ???
04A4   FB         ???
04A5   F8         SED
04A6   FB         ???
04A7   F9 FB FA   SBC $FAFB,Y
04AA   FB         ???
04AB   F6 50      INC $50,X
04AD   F7         ???
04AE   50 F8      BVC $04A8
04B0   50 F9      BVC $04AB
04B2   50 FA      BVC $04AE
04B4   50 FD      BVC $04B3
04B6   FE FF 41   INC $41FF,X
04B9   42         ???
04BA   44         ???
04BB   45 48      EOR $48
04BD   31 32      AND ($32),Y
04BF   34         ???
04C0   35 38      AND $38,X
04C2   00         BRK
04C3   BD 10 01   LDA $0110,X
04C6   F0 BE      BEQ $0486
04C8   C9 0B      CMP #$0B
04CA   90 05      BCC $04D1
04CC   A9 0B      LDA #$0B
04CE   9D 10 01   STA $0110,X
04D1   A8         TAY
04D2   BD 2C 01   LDA $012C,X
04D5   D0 04      BNE $04DB
04D7   9D 10 01   STA $0110,X
04DA   60         RTS
04DB   DE 2C 01   DEC $012C,X
04DE   C9 2B      CMP #$2B
04E0   D0 1E      BNE $0500
04E2   C0 0B      CPY #$0B
04E4   D0 07      BNE $04ED
04E6   EE 5A 07   INC $075A
04E9   A9 40      LDA #$40
04EB   85 FE      STA $FE
04ED   B9 B7 84   LDA $84B7,Y
04F0   4A         LSR A
04F1   4A         LSR A
04F2   4A         LSR A
04F3   4A         LSR A
04F4   AA         TAX
04F5   B9 B7 84   LDA $84B7,Y
04F8   29 0F      AND #$0F
04FA   9D 34 01   STA $0134,X
04FD   20 27 BC   JSR $BC27
0500   BC E5 06   LDY $06E5,X
0503   B5 16      LDA $16,X
0505   C9 12      CMP #$12
0507   F0 22      BEQ $052B
0509   C9 0D      CMP #$0D
050B   F0 1E      BEQ $052B
050D   C9 05      CMP #$05
050F   F0 12      BEQ $0523
0511   C9 0A      CMP #$0A
0513   F0 16      BEQ $052B
0515   C9 0B      CMP #$0B
0517   F0 12      BEQ $052B
0519   C9 09      CMP #$09
051B   B0 06      BCS $0523
051D   B5 1E      LDA $1E,X
051F   C9 02      CMP #$02
0521   B0 08      BCS $052B
0523   AE EE 03   LDX $03EE
0526   BC EC 06   LDY $06EC,X
0529   A6 08      LDX $08
052B   BD 1E 01   LDA $011E,X
052E   C9 18      CMP #$18
0530   90 05      BCC $0537
0532   E9 01      SBC #$01
0534   9D 1E 01   STA $011E,X
0537   BD 1E 01   LDA $011E,X
053A   E9 08      SBC #$08
053C   20 C1 E5   JSR $E5C1
053F   BD 17 01   LDA $0117,X
0542   99 03 02   STA $0203,Y
0545   18         CLC
0546   69 08      ADC #$08
0548   99 07 02   STA $0207,Y
054B   A9 02      LDA #$02
054D   99 02 02   STA $0202,Y
0550   99 06 02   STA $0206,Y
0553   BD 10 01   LDA $0110,X
0556   0A         ASL A
0557   AA         TAX
0558   BD 9F 84   LDA $849F,X
055B   99 01 02   STA $0201,Y
055E   BD A0 84   LDA $84A0,X
0561   99 05 02   STA $0205,Y
0564   A6 08      LDX $08
0566   60         RTS
0567   AD 3C 07   LDA $073C
056A   20 04 8E   JSR $8E04
056D   8B         ???
056E   85 9B      STA $9B
0570   85 52      STA $52
0572   86 5A      STX $5A
0574   86 93      STX $93
0576   86 9D      STX $9D
0578   88         DEY
0579   A8         TAY
057A   86 9D      STX $9D
057C   88         DEY
057D   E6 86      INC $86
057F   BF         ???
0580   85 E3      STA $E3
0582   85 43      STA $43
0584   86 FF      STX $FF
0586   86 32      STX $32
0588   87         ???
0589   49 87      EOR #$87
058B   20 20 82   JSR $8220
058E   20 19 8E   JSR $8E19
0591   AD 70 07   LDA $0770
0594   F0 32      BEQ $05C8
0596   A2 03      LDX #$03
0598   4C C5 85   JMP $85C5
059B   AD 44 07   LDA $0744
059E   48         PHA
059F   AD 56 07   LDA $0756
05A2   48         PHA
05A3   A9 00      LDA #$00
05A5   8D 56 07   STA $0756
05A8   A9 02      LDA #$02
05AA   8D 44 07   STA $0744
05AD   20 F1 85   JSR $85F1
05B0   68         PLA
05B1   8D 56 07   STA $0756
05B4   68         PLA
05B5   8D 44 07   STA $0744
05B8   4C 45 87   JMP $8745
05BB   01 02      ORA ($02,X)
05BD   03         ???
05BE   04         ???
05BF   AC 4E 07   LDY $074E
05C2   BE BB 85   LDX $85BB,Y
05C5   8E 73 07   STX $0773
05C8   4C 45 87   JMP $8745
05CB   00         BRK
05CC   09 0A      ORA #$0A
05CE   04         ???
05CF   22         ???
05D0   22         ???
05D1   0F         ???
05D2   0F         ???
05D3   0F         ???
05D4   22         ???
05D5   0F         ???
05D6   0F         ???
05D7   22         ???
05D8   16 27      ASL $27,X
05DA   18         CLC
05DB   22         ???
05DC   30 27      BMI $0605
05DE   19 22 37   ORA $3722,Y
05E1   27         ???
05E2   16 AC      ASL $AC,X
05E4   44         ???
05E5   07         ???
05E6   F0 06      BEQ $05EE
05E8   B9 C7 85   LDA $85C7,Y
05EB   8D 73 07   STA $0773
05EE   EE 3C 07   INC $073C
05F1   AE 00 03   LDX $0300
05F4   A0 00      LDY #$00
05F6   AD 53 07   LDA $0753
05F9   F0 02      BEQ $05FD
05FB   A0 04      LDY #$04
05FD   AD 56 07   LDA $0756
0600   C9 02      CMP #$02
0602   D0 02      BNE $0606
0604   A0 08      LDY #$08
0606   A9 03      LDA #$03
0608   85 00      STA $00
060A   B9 D7 85   LDA $85D7,Y
060D   9D 04 03   STA $0304,X
0610   C8         INY
0611   E8         INX
0612   C6 00      DEC $00
0614   10 F4      BPL $060A
0616   AE 00 03   LDX $0300
0619   AC 44 07   LDY $0744
061C   D0 03      BNE $0621
061E   AC 4E 07   LDY $074E
0621   B9 CF 85   LDA $85CF,Y
0624   9D 04 03   STA $0304,X
0627   A9 3F      LDA #$3F
0629   9D 01 03   STA $0301,X
062C   A9 10      LDA #$10
062E   9D 02 03   STA $0302,X
0631   A9 04      LDA #$04
0633   9D 03 03   STA $0303,X
0636   A9 00      LDA #$00
0638   9D 08 03   STA $0308,X
063B   8A         TXA
063C   18         CLC
063D   69 07      ADC #$07
063F   8D 00 03   STA $0300
0642   60         RTS
0643   AD 33 07   LDA $0733
0646   C9 01      CMP #$01
0648   D0 05      BNE $064F
064A   A9 0B      LDA #$0B
064C   8D 73 07   STA $0773
064F   4C 45 87   JMP $8745
0652   A9 00      LDA #$00
0654   20 08 88   JSR $8808
0657   4C 45 87   JMP $8745
065A   20 30 BC   JSR $BC30
065D   AE 00 03   LDX $0300
0660   A9 20      LDA #$20
0662   9D 01 03   STA $0301,X
0665   A9 73      LDA #$73
0667   9D 02 03   STA $0302,X
066A   A9 03      LDA #$03
066C   9D 03 03   STA $0303,X
066F   AC 5F 07   LDY $075F
0672   C8         INY
0673   98         TYA
0674   9D 04 03   STA $0304,X
0677   A9 28      LDA #$28
0679   9D 05 03   STA $0305,X
067C   AC 5C 07   LDY $075C
067F   C8         INY
0680   98         TYA
0681   9D 06 03   STA $0306,X
0684   A9 00      LDA #$00
0686   9D 07 03   STA $0307,X
0689   8A         TXA
068A   18         CLC
068B   69 06      ADC #$06
068D   8D 00 03   STA $0300
0690   4C 45 87   JMP $8745
0693   AD 59 07   LDA $0759
0696   F0 0A      BEQ $06A2
0698   A9 00      LDA #$00
069A   8D 59 07   STA $0759
069D   A9 02      LDA #$02
069F   4C C7 86   JMP $86C7
06A2   EE 3C 07   INC $073C
06A5   4C 45 87   JMP $8745
06A8   AD 70 07   LDA $0770
06AB   F0 33      BEQ $06E0
06AD   C9 03      CMP #$03
06AF   F0 22      BEQ $06D3
06B1   AD 52 07   LDA $0752
06B4   D0 2A      BNE $06E0
06B6   AC 4E 07   LDY $074E
06B9   C0 03      CPY #$03
06BB   F0 05      BEQ $06C2
06BD   AD 69 07   LDA $0769
06C0   D0 1E      BNE $06E0
06C2   20 A4 EF   JSR $EFA4
06C5   A9 01      LDA #$01
06C7   20 08 88   JSR $8808
06CA   20 A5 88   JSR $88A5
06CD   A9 00      LDA #$00
06CF   8D 74 07   STA $0774
06D2   60         RTS
06D3   A9 12      LDA #$12
06D5   8D A0 07   STA $07A0
06D8   A9 03      LDA #$03
06DA   20 08 88   JSR $8808
06DD   4C 4E 87   JMP $874E
06E0   A9 08      LDA #$08
06E2   8D 3C 07   STA $073C
06E5   60         RTS
06E6   EE 74 07   INC $0774
06E9   20 B0 92   JSR $92B0
06EC   AD 1F 07   LDA $071F
06EF   D0 F8      BNE $06E9
06F1   CE 1E 07   DEC $071E
06F4   10 03      BPL $06F9
06F6   EE 3C 07   INC $073C
06F9   A9 06      LDA #$06
06FB   8D 73 07   STA $0773
06FE   60         RTS
06FF   AD 70 07   LDA $0770
0702   D0 4A      BNE $074E
0704   A9 1E      LDA #$1E
0706   8D 06 20   STA $2006
0709   A9 C0      LDA #$C0
070B   8D 06 20   STA $2006
070E   A9 03      LDA #$03
0710   85 01      STA $01
0712   A0 00      LDY #$00
0714   84 00      STY $00
0716   AD 07 20   LDA $2007
0719   AD 07 20   LDA $2007
071C   91 00      STA ($00),Y
071E   C8         INY
071F   D0 02      BNE $0723
0721   E6 01      INC $01
0723   A5 01      LDA $01
0725   C9 04      CMP #$04
0727   D0 F0      BNE $0719
0729   C0 3A      CPY #$3A
072B   90 EC      BCC $0719
072D   A9 05      LDA #$05
072F   4C 4C 86   JMP $864C
0732   AD 70 07   LDA $0770
0735   D0 17      BNE $074E
0737   A2 00      LDX #$00
0739   9D 00 03   STA $0300,X
073C   9D 00 04   STA $0400,X
073F   CA         DEX
0740   D0 F7      BNE $0739
0742   20 25 83   JSR $8325
0745   EE 3C 07   INC $073C
0748   60         RTS
0749   A9 FA      LDA #$FA
074B   20 36 BC   JSR $BC36
074E   EE 72 07   INC $0772
0751   60         RTS
0752   20 43 05   JSR $0543
0755   16 0A      ASL $0A,X
0757   1B         ???
0758   12         ???
0759   18         CLC
075A   20 52 0B   JSR $0B52
075D   20 18 1B   JSR $1B18
0760   15 0D      ORA $0D,X
0762   24 24      BIT $24
0764   1D 12 16   ORA $1612,X
0767   0E 20 68   ASL $6820
076A   05 00      ORA $00
076C   24 24      BIT $24
076E   2E 29 23   ROL $2329
0771   C0 7F      CPY #$7F
0773   AA         TAX
0774   23         ???
0775   C2         ???
0776   01 EA      ORA ($EA,X)
0778   FF         ???
0779   21 CD      AND ($CD,X)
077B   07         ???
077C   24 24      BIT $24
077E   29 24      AND #$24
0780   24 24      BIT $24
0782   24 21      BIT $21
0784   4B         ???
0785   09 20      ORA #$20
0787   18         CLC
0788   1B         ???
0789   15 0D      ORA $0D,X
078B   24 24      BIT $24
078D   28         PLP
078E   24 22      BIT $22
0790   0C         ???
0791   47         ???
0792   24 23      BIT $23
0794   DC         ???
0795   01 BA      ORA ($BA,X)
0797   FF         ???
0798   21 CD      AND ($CD,X)
079A   05 16      ORA $16
079C   0A         ASL A
079D   1B         ???
079E   12         ???
079F   18         CLC
07A0   22         ???
07A1   0C         ???
07A2   07         ???
07A3   1D 12 16   ORA $1612,X
07A6   0E 24 1E   ASL $1E24
07A9   19 FF 21   ORA $21FF,Y
07AC   CD 05 16   CMP $1605
07AF   0A         ASL A
07B0   1B         ???
07B1   12         ???
07B2   18         CLC
07B3   22         ???
07B4   0B         ???
07B5   09 10      ORA #$10
07B7   0A         ASL A
07B8   16 0E      ASL $0E,X
07BA   24 18      BIT $18
07BC   1F         ???
07BD   0E 1B FF   ASL $FF1B
07C0   25 84      AND $84
07C2   15 20      ORA $20,X
07C4   0E 15 0C   ASL $0C15
07C7   18         CLC
07C8   16 0E      ASL $0E,X
07CA   24 1D      BIT $1D
07CC   18         CLC
07CD   24 20      BIT $20
07CF   0A         ASL A
07D0   1B         ???
07D1   19 24 23   ORA $2324,Y
07D4   18         CLC
07D5   17         ???
07D6   0E 2B 26   ASL $262B
07D9   25 01      AND $01
07DB   24 26      BIT $26
07DD   2D 01 24   AND $2401
07E0   26 35      ROL $35
07E2   01 24      ORA ($24,X)
07E4   27         ???
07E5   D9 46 AA   CMP $AA46,Y
07E8   27         ???
07E9   E1 45      SBC ($45,X)
07EB   AA         TAX
07EC   FF         ???
07ED   15 1E      ORA $1E,X
07EF   12         ???
07F0   10 12      BPL $0804
07F2   04         ???
07F3   03         ???
07F4   02         ???
07F5   00         BRK
07F6   24 05      BIT $05
07F8   24 00      BIT $00
07FA   08         PHP
07FB   07         ???
07FC   06 00      ASL $00
07FE   00         BRK
07FF   00         BRK
0800   27         ???
0801   27         ???
0802   46 4E      LSR $4E
0804   59 61 6E   EOR $6E61,Y
0807   6E 48 0A   ROR $0A48
080A   A8         TAY
080B   C0 04      CPY #$04
080D   90 0C      BCC $081B
080F   C0 08      CPY #$08
0811   90 02      BCC $0815
0813   A0 08      LDY #$08
0815   AD 7A 07   LDA $077A
0818   D0 01      BNE $081B
081A   C8         INY
081B   BE FE 87   LDX $87FE,Y
081E   A0 00      LDY #$00
0820   BD 52 87   LDA $8752,X
0823   C9 FF      CMP #$FF
0825   F0 07      BEQ $082E
0827   99 01 03   STA $0301,Y
082A   E8         INX
082B   C8         INY
082C   D0 F2      BNE $0820
082E   A9 00      LDA #$00
0830   99 01 03   STA $0301,Y
0833   68         PLA
0834   AA         TAX
0835   C9 04      CMP #$04
0837   B0 49      BCS $0882
0839   CA         DEX
083A   D0 23      BNE $085F
083C   AD 5A 07   LDA $075A
083F   18         CLC
0840   69 01      ADC #$01
0842   C9 0A      CMP #$0A
0844   90 07      BCC $084D
0846   E9 0A      SBC #$0A
0848   A0 9F      LDY #$9F
084A   8C 08 03   STY $0308
084D   8D 09 03   STA $0309
0850   AC 5F 07   LDY $075F
0853   C8         INY
0854   8C 14 03   STY $0314
0857   AC 5C 07   LDY $075C
085A   C8         INY
085B   8C 16 03   STY $0316
085E   60         RTS
085F   AD 7A 07   LDA $077A
0862   F0 1D      BEQ $0881
0864   AD 53 07   LDA $0753
0867   CA         DEX
0868   D0 09      BNE $0873
086A   AC 70 07   LDY $0770
086D   C0 03      CPY #$03
086F   F0 02      BEQ $0873
0871   49 01      EOR #$01
0873   4A         LSR A
0874   90 0B      BCC $0881
0876   A0 04      LDY #$04
0878   B9 ED 87   LDA $87ED,Y
087B   99 04 03   STA $0304,Y
087E   88         DEY
087F   10 F7      BPL $0878
0881   60         RTS
0882   E9 04      SBC #$04
0884   0A         ASL A
0885   0A         ASL A
0886   AA         TAX
0887   A0 00      LDY #$00
0889   BD F2 87   LDA $87F2,X
088C   99 1C 03   STA $031C,Y
088F   E8         INX
0890   C8         INY
0891   C8         INY
0892   C8         INY
0893   C8         INY
0894   C0 0C      CPY #$0C
0896   90 F1      BCC $0889
0898   A9 2C      LDA #$2C
089A   4C 3F 86   JMP $863F
089D   AD A0 07   LDA $07A0
08A0   D0 0B      BNE $08AD
08A2   20 20 82   JSR $8220
08A5   A9 07      LDA #$07
08A7   8D A0 07   STA $07A0
08AA   EE 3C 07   INC $073C
08AD   60         RTS
08AE   AD 26 07   LDA $0726
08B1   29 01      AND #$01
08B3   85 05      STA $05
08B5   AC 40 03   LDY $0340
08B8   84 00      STY $00
08BA   AD 21 07   LDA $0721
08BD   99 42 03   STA $0342,Y
08C0   AD 20 07   LDA $0720
08C3   99 41 03   STA $0341,Y
08C6   A9 9A      LDA #$9A
08C8   99 43 03   STA $0343,Y
08CB   A9 00      LDA #$00
08CD   85 04      STA $04
08CF   AA         TAX
08D0   86 01      STX $01
08D2   BD A1 06   LDA $06A1,X
08D5   29 C0      AND #$C0
08D7   85 03      STA $03
08D9   0A         ASL A
08DA   2A         ROL A
08DB   2A         ROL A
08DC   A8         TAY
08DD   B9 08 8B   LDA $8B08,Y
08E0   85 06      STA $06
08E2   B9 0C 8B   LDA $8B0C,Y
08E5   85 07      STA $07
08E7   BD A1 06   LDA $06A1,X
08EA   0A         ASL A
08EB   0A         ASL A
08EC   85 02      STA $02
08EE   AD 1F 07   LDA $071F
08F1   29 01      AND #$01
08F3   49 01      EOR #$01
08F5   0A         ASL A
08F6   65 02      ADC $02
08F8   A8         TAY
08F9   A6 00      LDX $00
08FB   B1 06      LDA ($06),Y
08FD   9D 44 03   STA $0344,X
0900   C8         INY
0901   B1 06      LDA ($06),Y
0903   9D 45 03   STA $0345,X
0906   A4 04      LDY $04
0908   A5 05      LDA $05
090A   D0 0E      BNE $091A
090C   A5 01      LDA $01
090E   4A         LSR A
090F   B0 19      BCS $092A
0911   26 03      ROL $03
0913   26 03      ROL $03
0915   26 03      ROL $03
0917   4C 30 89   JMP $8930
091A   A5 01      LDA $01
091C   4A         LSR A
091D   B0 0F      BCS $092E
091F   46 03      LSR $03
0921   46 03      LSR $03
0923   46 03      LSR $03
0925   46 03      LSR $03
0927   4C 30 89   JMP $8930
092A   46 03      LSR $03
092C   46 03      LSR $03
092E   E6 04      INC $04
0930   B9 F9 03   LDA $03F9,Y
0933   05 03      ORA $03
0935   99 F9 03   STA $03F9,Y
0938   E6 00      INC $00
093A   E6 00      INC $00
093C   A6 01      LDX $01
093E   E8         INX
093F   E0 0D      CPX #$0D
0941   90 8D      BCC $08D0
0943   A4 00      LDY $00
0945   C8         INY
0946   C8         INY
0947   C8         INY
0948   A9 00      LDA #$00
094A   99 41 03   STA $0341,Y
094D   8C 40 03   STY $0340
0950   EE 21 07   INC $0721
0953   AD 21 07   LDA $0721
0956   29 1F      AND #$1F
0958   D0 0D      BNE $0967
095A   A9 80      LDA #$80
095C   8D 21 07   STA $0721
095F   AD 20 07   LDA $0720
0962   49 04      EOR #$04
0964   8D 20 07   STA $0720
0967   4C BD 89   JMP $89BD
096A   AD 21 07   LDA $0721
096D   29 1F      AND #$1F
096F   38         SEC
0970   E9 04      SBC #$04
0972   29 1F      AND #$1F
0974   85 01      STA $01
0976   AD 20 07   LDA $0720
0979   B0 02      BCS $097D
097B   49 04      EOR #$04
097D   29 04      AND #$04
097F   09 23      ORA #$23
0981   85 00      STA $00
0983   A5 01      LDA $01
0985   4A         LSR A
0986   4A         LSR A
0987   69 C0      ADC #$C0
0989   85 01      STA $01
098B   A2 00      LDX #$00
098D   AC 40 03   LDY $0340
0990   A5 00      LDA $00
0992   99 41 03   STA $0341,Y
0995   A5 01      LDA $01
0997   18         CLC
0998   69 08      ADC #$08
099A   99 42 03   STA $0342,Y
099D   85 01      STA $01
099F   BD F9 03   LDA $03F9,X
09A2   99 44 03   STA $0344,Y
09A5   A9 01      LDA #$01
09A7   99 43 03   STA $0343,Y
09AA   4A         LSR A
09AB   9D F9 03   STA $03F9,X
09AE   C8         INY
09AF   C8         INY
09B0   C8         INY
09B1   C8         INY
09B2   E8         INX
09B3   E0 07      CPX #$07
09B5   90 D9      BCC $0990
09B7   99 41 03   STA $0341,Y
09BA   8C 40 03   STY $0340
09BD   A9 06      LDA #$06
09BF   8D 73 07   STA $0773
09C2   60         RTS
09C3   27         ???
09C4   27         ???
09C5   27         ???
09C6   17         ???
09C7   07         ???
09C8   17         ???
09C9   3F         ???
09CA   0C         ???
09CB   04         ???
09CC   FF         ???
09CD   FF         ???
09CE   FF         ???
09CF   FF         ???
09D0   00         BRK
09D1   0F         ???
09D2   07         ???
09D3   12         ???
09D4   0F         ???
09D5   0F         ???
09D6   07         ???
09D7   17         ???
09D8   0F         ???
09D9   0F         ???
09DA   07         ???
09DB   17         ???
09DC   1C         ???
09DD   0F         ???
09DE   07         ???
09DF   17         ???
09E0   00         BRK
09E1   A5 09      LDA $09
09E3   29 07      AND #$07
09E5   D0 51      BNE $0A38
09E7   AE 00 03   LDX $0300
09EA   E0 31      CPX #$31
09EC   B0 4A      BCS $0A38
09EE   A8         TAY
09EF   B9 C9 89   LDA $89C9,Y
09F2   9D 01 03   STA $0301,X
09F5   E8         INX
09F6   C8         INY
09F7   C0 08      CPY #$08
09F9   90 F4      BCC $09EF
09FB   AE 00 03   LDX $0300
09FE   A9 03      LDA #$03
0A00   85 00      STA $00
0A02   AD 4E 07   LDA $074E
0A05   0A         ASL A
0A06   0A         ASL A
0A07   A8         TAY
0A08   B9 D1 89   LDA $89D1,Y
0A0B   9D 04 03   STA $0304,X
0A0E   C8         INY
0A0F   E8         INX
0A10   C6 00      DEC $00
0A12   10 F4      BPL $0A08
0A14   AE 00 03   LDX $0300
0A17   AC D4 06   LDY $06D4
0A1A   B9 C3 89   LDA $89C3,Y
0A1D   9D 05 03   STA $0305,X
0A20   AD 00 03   LDA $0300
0A23   18         CLC
0A24   69 07      ADC #$07
0A26   8D 00 03   STA $0300
0A29   EE D4 06   INC $06D4
0A2C   AD D4 06   LDA $06D4
0A2F   C9 06      CMP #$06
0A31   90 05      BCC $0A38
0A33   A9 00      LDA #$00
0A35   8D D4 06   STA $06D4
0A38   60         RTS
0A39   45 45      EOR $45
0A3B   47         ???
0A3C   47         ???
0A3D   47         ???
0A3E   47         ???
0A3F   47         ???
0A40   47         ???
0A41   57         ???
0A42   58         CLI
0A43   59 5A 24   EOR $245A,Y
0A46   24 24      BIT $24
0A48   24 26      BIT $26
0A4A   26 26      ROL $26
0A4C   26 A0      ROL $A0
0A4E   41 A9      EOR ($A9,X)
0A50   03         ???
0A51   AE 4E 07   LDX $074E
0A54   D0 02      BNE $0A58
0A56   A9 04      LDA #$04
0A58   20 97 8A   JSR $8A97
0A5B   A9 06      LDA #$06
0A5D   8D 73 07   STA $0773
0A60   60         RTS
0A61   20 6D 8A   JSR $8A6D
0A64   EE F0 03   INC $03F0
0A67   DE EC 03   DEC $03EC,X
0A6A   60         RTS
0A6B   A9 00      LDA #$00
0A6D   A0 03      LDY #$03
0A6F   C9 00      CMP #$00
0A71   F0 14      BEQ $0A87
0A73   A0 00      LDY #$00
0A75   C9 58      CMP #$58
0A77   F0 0E      BEQ $0A87
0A79   C9 51      CMP #$51
0A7B   F0 0A      BEQ $0A87
0A7D   C8         INY
0A7E   C9 5D      CMP #$5D
0A80   F0 05      BEQ $0A87
0A82   C9 52      CMP #$52
0A84   F0 01      BEQ $0A87
0A86   C8         INY
0A87   98         TYA
0A88   AC 00 03   LDY $0300
0A8B   C8         INY
0A8C   20 97 8A   JSR $8A97
0A8F   88         DEY
0A90   98         TYA
0A91   18         CLC
0A92   69 0A      ADC #$0A
0A94   4C 3F 86   JMP $863F
0A97   86 00      STX $00
0A99   84 01      STY $01
0A9B   0A         ASL A
0A9C   0A         ASL A
0A9D   AA         TAX
0A9E   A0 20      LDY #$20
0AA0   A5 06      LDA $06
0AA2   C9 D0      CMP #$D0
0AA4   90 02      BCC $0AA8
0AA6   A0 24      LDY #$24
0AA8   84 03      STY $03
0AAA   29 0F      AND #$0F
0AAC   0A         ASL A
0AAD   85 04      STA $04
0AAF   A9 00      LDA #$00
0AB1   85 05      STA $05
0AB3   A5 02      LDA $02
0AB5   18         CLC
0AB6   69 20      ADC #$20
0AB8   0A         ASL A
0AB9   26 05      ROL $05
0ABB   0A         ASL A
0ABC   26 05      ROL $05
0ABE   65 04      ADC $04
0AC0   85 04      STA $04
0AC2   A5 05      LDA $05
0AC4   69 00      ADC #$00
0AC6   18         CLC
0AC7   65 03      ADC $03
0AC9   85 05      STA $05
0ACB   A4 01      LDY $01
0ACD   BD 39 8A   LDA $8A39,X
0AD0   99 03 03   STA $0303,Y
0AD3   BD 3A 8A   LDA $8A3A,X
0AD6   99 04 03   STA $0304,Y
0AD9   BD 3B 8A   LDA $8A3B,X
0ADC   99 08 03   STA $0308,Y
0ADF   BD 3C 8A   LDA $8A3C,X
0AE2   99 09 03   STA $0309,Y
0AE5   A5 04      LDA $04
0AE7   99 01 03   STA $0301,Y
0AEA   18         CLC
0AEB   69 20      ADC #$20
0AED   99 06 03   STA $0306,Y
0AF0   A5 05      LDA $05
0AF2   99 00 03   STA $0300,Y
0AF5   99 05 03   STA $0305,Y
0AF8   A9 02      LDA #$02
0AFA   99 02 03   STA $0302,Y
0AFD   99 07 03   STA $0307,Y
0B00   A9 00      LDA #$00
0B02   99 0A 03   STA $030A,Y
0B05   A6 00      LDX $00
0B07   60         RTS
0B08   10 AC      BPL $0AB6
0B0A   64         ???
0B0B   8C 8B 8B   STY $8B8B
0B0E   8C 8C 24   STY $248C
0B11   24 24      BIT $24
0B13   24 27      BIT $27
0B15   27         ???
0B16   27         ???
0B17   27         ???
0B18   24 24      BIT $24
0B1A   24 35      BIT $35
0B1C   36 25      ROL $25,X
0B1E   37         ???
0B1F   25 24      AND $24
0B21   38         SEC
0B22   24 24      BIT $24
0B24   24 30      BIT $30
0B26   30 26      BMI $0B4E
0B28   26 26      ROL $26
0B2A   34         ???
0B2B   26 24      ROL $24
0B2D   31 24      AND ($24),Y
0B2F   32         ???
0B30   33         ???
0B31   26 24      ROL $24
0B33   33         ???
0B34   34         ???
0B35   26 26      ROL $26
0B37   26 26      ROL $26
0B39   26 26      ROL $26
0B3B   26 24      ROL $24
0B3D   C0 24      CPY #$24
0B3F   C0 24      CPY #$24
0B41   7F         ???
0B42   7F         ???
0B43   24 B8      BIT $B8
0B45   BA         TSX
0B46   B9 BB B8   LDA $B8BB,Y
0B49   BC B9 BD   LDY $BDB9,X
0B4C   BA         TSX
0B4D   BC BB BD   LDY $BDBB,X
0B50   60         RTS
0B51   64         ???
0B52   61 65      ADC ($65,X)
0B54   62         ???
0B55   66 63      ROR $63
0B57   67         ???
0B58   60         RTS
0B59   64         ???
0B5A   61 65      ADC ($65,X)
0B5C   62         ???
0B5D   66 63      ROR $63
0B5F   67         ???
0B60   68         PLA
0B61   68         PLA
0B62   69 69      ADC #$69
0B64   26 26      ROL $26
0B66   6A         ROR A
0B67   6A         ROR A
0B68   4B         ???
0B69   4C 4D 4E   JMP $4E4D
0B6C   4D 4F 4D   EOR $4D4F
0B6F   4F         ???
0B70   4D 4E 50   EOR $504E
0B73   51 6B      EOR ($6B),Y
0B75   70 2C      BVS $0BA3
0B77   2D 6C 71   AND $716C
0B7A   6D 72 6E   ADC $6E72
0B7D   73         ???
0B7E   6F         ???
0B7F   74         ???
0B80   86 8A      STX $8A
0B82   87         ???
0B83   8B         ???
0B84   88         DEY
0B85   8C 88 8C   STY $8C88
0B88   89         ???
0B89   8D 69 69   STA $6969
0B8C   8E 91 8F   STX $8F91
0B8F   92         ???
0B90   26 93      ROL $93
0B92   26 93      ROL $93
0B94   90 94      BCC $0B2A
0B96   69 69      ADC #$69
0B98   A4 E9      LDY $E9
0B9A   EA         NOP
0B9B   EB         ???
0B9C   24 24      BIT $24
0B9E   24 24      BIT $24
0BA0   24 2F      BIT $2F
0BA2   24 3D      BIT $3D
0BA4   A2 A2      LDX #$A2
0BA6   A3         ???
0BA7   A3         ???
0BA8   24 24      BIT $24
0BAA   24 24      BIT $24
0BAC   A2 A2      LDX #$A2
0BAE   A3         ???
0BAF   A3         ???
0BB0   99 24 99   STA $9924,Y
0BB3   24 24      BIT $24
0BB5   A2 3E      LDX #$3E
0BB7   3F         ???
0BB8   5B         ???
0BB9   5C         ???
0BBA   24 A3      BIT $A3
0BBC   24 24      BIT $24
0BBE   24 24      BIT $24
0BC0   9D 47 9E   STA $9E47,X
0BC3   47         ???
0BC4   47         ???
0BC5   47         ???
0BC6   27         ???
0BC7   27         ???
0BC8   47         ???
0BC9   47         ???
0BCA   47         ???
0BCB   47         ???
0BCC   27         ???
0BCD   27         ???
0BCE   47         ???
0BCF   47         ???
0BD0   A9 47      LDA #$47
0BD2   AA         TAX
0BD3   47         ???
0BD4   9B         ???
0BD5   27         ???
0BD6   9C         ???
0BD7   27         ???
0BD8   27         ???
0BD9   27         ???
0BDA   27         ???
0BDB   27         ???
0BDC   52         ???
0BDD   52         ???
0BDE   52         ???
0BDF   52         ???
0BE0   80         ???
0BE1   A0 81      LDY #$81
0BE3   A1 BE      LDA ($BE,X)
0BE5   BE BF BF   LDX $BFBF,Y
0BE8   75 BA      ADC $BA,X
0BEA   76 BB      ROR $BB,X
0BEC   BA         TSX
0BED   BA         TSX
0BEE   BB         ???
0BEF   BB         ???
0BF0   45 47      EOR $47
0BF2   45 47      EOR $47
0BF4   47         ???
0BF5   47         ???
0BF6   47         ???
0BF7   47         ???
0BF8   45 47      EOR $47
0BFA   45 47      EOR $47
0BFC   B4 B6      LDY $B6,X
0BFE   B5 B7      LDA $B7,X
0C00   45 47      EOR $47
0C02   45 47      EOR $47
0C04   45 47      EOR $47
0C06   45 47      EOR $47
0C08   45 47      EOR $47
0C0A   45 47      EOR $47
0C0C   45 47      EOR $47
0C0E   45 47      EOR $47
0C10   45 47      EOR $47
0C12   45 47      EOR $47
0C14   47         ???
0C15   47         ???
0C16   47         ???
0C17   47         ???
0C18   47         ???
0C19   47         ???
0C1A   47         ???
0C1B   47         ???
0C1C   47         ???
0C1D   47         ???
0C1E   47         ???
0C1F   47         ???
0C20   47         ???
0C21   47         ???
0C22   47         ???
0C23   47         ???
0C24   47         ???
0C25   47         ???
0C26   47         ???
0C27   47         ???
0C28   24 24      BIT $24
0C2A   24 24      BIT $24
0C2C   24 24      BIT $24
0C2E   24 24      BIT $24
0C30   AB         ???
0C31   AC AD AE   LDY $AEAD
0C34   5D 5E 5D   EOR $5D5E,X
0C37   5E C1 24   LSR $24C1,X
0C3A   C1 24      CMP ($24,X)
0C3C   C6 C8      DEC $C8
0C3E   C7         ???
0C3F   C9 CA      CMP #$CA
0C41   CC CB CD   CPY $CDCB
0C44   2A         ROL A
0C45   2A         ROL A
0C46   40         RTI
0C47   40         RTI
0C48   24 24      BIT $24
0C4A   24 24      BIT $24
0C4C   24 47      BIT $47
0C4E   24 47      BIT $47
0C50   82         ???
0C51   83         ???
0C52   84 85      STY $85
0C54   24 47      BIT $47
0C56   24 47      BIT $47
0C58   86 8A      STX $8A
0C5A   87         ???
0C5B   8B         ???
0C5C   8E 91 8F   STX $8F91
0C5F   92         ???
0C60   24 2F      BIT $2F
0C62   24 3D      BIT $3D
0C64   24 24      BIT $24
0C66   24 35      BIT $35
0C68   36 25      ROL $25,X
0C6A   37         ???
0C6B   25 24      AND $24
0C6D   38         SEC
0C6E   24 24      BIT $24
0C70   24 24      BIT $24
0C72   39 24 3A   AND $3A24,Y
0C75   24 3B      BIT $3B
0C77   24 3C      BIT $3C
0C79   24 24      BIT $24
0C7B   24 41      BIT $41
0C7D   26 41      ROL $41
0C7F   26 26      ROL $26
0C81   26 26      ROL $26
0C83   26 B0      ROL $B0
0C85   B1 B2      LDA ($B2),Y
0C87   B3         ???
0C88   77         ???
0C89   79 77 79   ADC $7977,Y
0C8C   53         ???
0C8D   55 54      EOR $54,X
0C8F   56 53      LSR $53,X
0C91   55 54      EOR $54,X
0C93   56 A5      LSR $A5,X
0C95   A7         ???
0C96   A6 A8      LDX $A8
0C98   C2         ???
0C99   C4 C3      CPY $C3
0C9B   C5 57      CMP $57
0C9D   59 58 5A   EOR $5A58,Y
0CA0   7B         ???
0CA1   7D 7C 7E   ADC $7E7C,X
0CA4   3F         ???
0CA5   00         BRK
0CA6   20 0F 15   JSR $150F
0CA9   12         ???
0CAA   25 0F      AND $0F
0CAC   3A         ???
0CAD   1A         ???
0CAE   0F         ???
0CAF   0F         ???
0CB0   30 12      BMI $0CC4
0CB2   0F         ???
0CB3   0F         ???
0CB4   27         ???
0CB5   12         ???
0CB6   0F         ???
0CB7   22         ???
0CB8   16 27      ASL $27,X
0CBA   18         CLC
0CBB   0F         ???
0CBC   10 30      BPL $0CEE
0CBE   27         ???
0CBF   0F         ???
0CC0   16 30      ASL $30,X
0CC2   27         ???
0CC3   0F         ???
0CC4   0F         ???
0CC5   30 10      BMI $0CD7
0CC7   00         BRK
0CC8   3F         ???
0CC9   00         BRK
0CCA   20 0F 29   JSR $290F
0CCD   1A         ???
0CCE   0F         ???
0CCF   0F         ???
0CD0   36 17      ROL $17,X
0CD2   0F         ???
0CD3   0F         ???
0CD4   30 21      BMI $0CF7
0CD6   0F         ???
0CD7   0F         ???
0CD8   27         ???
0CD9   17         ???
0CDA   0F         ???
0CDB   0F         ???
0CDC   16 27      ASL $27,X
0CDE   18         CLC
0CDF   0F         ???
0CE0   1A         ???
0CE1   30 27      BMI $0D0A
0CE3   0F         ???
0CE4   16 30      ASL $30,X
0CE6   27         ???
0CE7   0F         ???
0CE8   0F         ???
0CE9   36 17      ROL $17,X
0CEB   00         BRK
0CEC   3F         ???
0CED   00         BRK
0CEE   20 0F 29   JSR $290F
0CF1   1A         ???
0CF2   09 0F      ORA #$0F
0CF4   3C         ???
0CF5   1C         ???
0CF6   0F         ???
0CF7   0F         ???
0CF8   30 21      BMI $0D1B
0CFA   1C         ???
0CFB   0F         ???
0CFC   27         ???
0CFD   17         ???
0CFE   1C         ???
0CFF   0F         ???
0D00   16 27      ASL $27,X
0D02   18         CLC
0D03   0F         ???
0D04   1C         ???
0D05   36 17      ROL $17,X
0D07   0F         ???
0D08   16 30      ASL $30,X
0D0A   27         ???
0D0B   0F         ???
0D0C   0C         ???
0D0D   3C         ???
0D0E   1C         ???
0D0F   00         BRK
0D10   3F         ???
0D11   00         BRK
0D12   20 0F 30   JSR $300F
0D15   10 00      BPL $0D17
0D17   0F         ???
0D18   30 10      BMI $0D2A
0D1A   00         BRK
0D1B   0F         ???
0D1C   30 16      BMI $0D34
0D1E   00         BRK
0D1F   0F         ???
0D20   27         ???
0D21   17         ???
0D22   00         BRK
0D23   0F         ???
0D24   16 27      ASL $27,X
0D26   18         CLC
0D27   0F         ???
0D28   1C         ???
0D29   36 17      ROL $17,X
0D2B   0F         ???
0D2C   16 30      ASL $30,X
0D2E   27         ???
0D2F   0F         ???
0D30   00         BRK
0D31   30 10      BMI $0D43
0D33   00         BRK
0D34   3F         ???
0D35   00         BRK
0D36   04         ???
0D37   22         ???
0D38   30 00      BMI $0D3A
0D3A   10 00      BPL $0D3C
0D3C   3F         ???
0D3D   00         BRK
0D3E   04         ???
0D3F   0F         ???
0D40   30 00      BMI $0D42
0D42   10 00      BPL $0D44
0D44   3F         ???
0D45   00         BRK
0D46   04         ???
0D47   22         ???
0D48   27         ???
0D49   16 0F      ASL $0F,X
0D4B   00         BRK
0D4C   3F         ???
0D4D   14         ???
0D4E   04         ???
0D4F   0F         ???
0D50   1A         ???
0D51   30 27      BMI $0D7A
0D53   00         BRK
0D54   25 48      AND $48
0D56   10 1D      BPL $0D75
0D58   11 0A      ORA ($0A),Y
0D5A   17         ???
0D5B   14         ???
0D5C   24 22      BIT $22
0D5E   18         CLC
0D5F   1E 24 16   ASL $1624,X
0D62   0A         ASL A
0D63   1B         ???
0D64   12         ???
0D65   18         CLC
0D66   2B         ???
0D67   00         BRK
0D68   25 48      AND $48
0D6A   10 1D      BPL $0D89
0D6C   11 0A      ORA ($0A),Y
0D6E   17         ???
0D6F   14         ???
0D70   24 22      BIT $22
0D72   18         CLC
0D73   1E 24 15   ASL $1524,X
0D76   1E 12 10   ASL $1012,X
0D79   12         ???
0D7A   2B         ???
0D7B   00         BRK
0D7C   25 C5      AND $C5
0D7E   16 0B      ASL $0B,X
0D80   1E 1D 24   ASL $241D,X
0D83   18         CLC
0D84   1E 1B 24   ASL $241B,X
0D87   19 1B 12   ORA $121B,Y
0D8A   17         ???
0D8B   0C         ???
0D8C   0E 1C 1C   ASL $1C1C
0D8F   24 12      BIT $12
0D91   1C         ???
0D92   24 12      BIT $12
0D94   17         ???
0D95   26 05      ROL $05
0D97   0F         ???
0D98   0A         ASL A
0D99   17         ???
0D9A   18         CLC
0D9B   1D 11 0E   ORA $0E11,X
0D9E   1B         ???
0D9F   24 0C      BIT $0C
0DA1   0A         ASL A
0DA2   1C         ???
0DA3   1D 15 0E   ORA $0E15,X
0DA6   2B         ???
0DA7   00         BRK
0DA8   25 A7      AND $A7
0DAA   13         ???
0DAB   22         ???
0DAC   18         CLC
0DAD   1E 1B 24   ASL $241B,X
0DB0   1A         ???
0DB1   1E 0E 1C   ASL $1C0E,X
0DB4   1D 24 12   ORA $1224,X
0DB7   1C         ???
0DB8   24 18      BIT $18
0DBA   1F         ???
0DBB   0E 1B AF   ASL $AF1B
0DBE   00         BRK
0DBF   25 E3      AND $E3
0DC1   1B         ???
0DC2   20 0E 24   JSR $240E
0DC5   19 1B 0E   ORA $0E1B,Y
0DC8   1C         ???
0DC9   0E 17 1D   ASL $1D17
0DCC   24 22      BIT $22
0DCE   18         CLC
0DCF   1E 24 0A   ASL $0A24,X
0DD2   24 17      BIT $17
0DD4   0E 20 24   ASL $2420
0DD7   1A         ???
0DD8   1E 0E 1C   ASL $1C0E,X
0DDB   1D AF 00   ORA $00AF,X
0DDE   26 4A      ROL $4A
0DE0   0D 19 1E   ORA $1E19
0DE3   1C         ???
0DE4   11 24      ORA ($24),Y
0DE6   0B         ???
0DE7   1E 1D 1D   ASL $1D1D,X
0DEA   18         CLC
0DEB   17         ???
0DEC   24 0B      BIT $0B
0DEE   00         BRK
0DEF   26 88      ROL $88
0DF1   11 1D      ORA ($1D),Y
0DF3   18         CLC
0DF4   24 1C      BIT $1C
0DF6   0E 15 0E   ASL $0E15
0DF9   0C         ???
0DFA   1D 24 0A   ORA $0A24,X
0DFD   24 20      BIT $20
0DFF   18         CLC
0E00   1B         ???
0E01   15 0D      ORA $0D,X
0E03   00         BRK
0E04   0A         ASL A
0E05   A8         TAY
0E06   68         PLA
0E07   85 04      STA $04
0E09   68         PLA
0E0A   85 05      STA $05
0E0C   C8         INY
0E0D   B1 04      LDA ($04),Y
0E0F   85 06      STA $06
0E11   C8         INY
0E12   B1 04      LDA ($04),Y
0E14   85 07      STA $07
0E16   6C 06 00   JMP ($0006)
0E19   AD 02 20   LDA $2002
0E1C   AD 78 07   LDA $0778
0E1F   09 10      ORA #$10
0E21   29 F0      AND #$F0
0E23   20 ED 8E   JSR $8EED
0E26   A9 24      LDA #$24
0E28   20 2D 8E   JSR $8E2D
0E2B   A9 20      LDA #$20
0E2D   8D 06 20   STA $2006
0E30   A9 00      LDA #$00
0E32   8D 06 20   STA $2006
0E35   A2 04      LDX #$04
0E37   A0 C0      LDY #$C0
0E39   A9 24      LDA #$24
0E3B   8D 07 20   STA $2007
0E3E   88         DEY
0E3F   D0 FA      BNE $0E3B
0E41   CA         DEX
0E42   D0 F7      BNE $0E3B
0E44   A0 40      LDY #$40
0E46   8A         TXA
0E47   8D 00 03   STA $0300
0E4A   8D 01 03   STA $0301
0E4D   8D 07 20   STA $2007
0E50   88         DEY
0E51   D0 FA      BNE $0E4D
0E53   8D 3F 07   STA $073F
0E56   8D 40 07   STA $0740
0E59   4C E6 8E   JMP $8EE6
0E5C   A9 01      LDA #$01
0E5E   8D 16 40   STA $4016
0E61   4A         LSR A
0E62   AA         TAX
0E63   8D 16 40   STA $4016
0E66   20 6A 8E   JSR $8E6A
0E69   E8         INX
0E6A   A0 08      LDY #$08
0E6C   48         PHA
0E6D   BD 16 40   LDA $4016,X
0E70   85 00      STA $00
0E72   4A         LSR A
0E73   05 00      ORA $00
0E75   4A         LSR A
0E76   68         PLA
0E77   2A         ROL A
0E78   88         DEY
0E79   D0 F1      BNE $0E6C
0E7B   9D FC 06   STA $06FC,X
0E7E   48         PHA
0E7F   29 30      AND #$30
0E81   3D 4A 07   AND $074A,X
0E84   F0 07      BEQ $0E8D
0E86   68         PLA
0E87   29 CF      AND #$CF
0E89   9D FC 06   STA $06FC,X
0E8C   60         RTS
0E8D   68         PLA
0E8E   9D 4A 07   STA $074A,X
0E91   60         RTS
0E92   8D 06 20   STA $2006
0E95   C8         INY
0E96   B1 00      LDA ($00),Y
0E98   8D 06 20   STA $2006
0E9B   C8         INY
0E9C   B1 00      LDA ($00),Y
0E9E   0A         ASL A
0E9F   48         PHA
0EA0   AD 78 07   LDA $0778
0EA3   09 04      ORA #$04
0EA5   B0 02      BCS $0EA9
0EA7   29 FB      AND #$FB
0EA9   20 ED 8E   JSR $8EED
0EAC   68         PLA
0EAD   0A         ASL A
0EAE   90 03      BCC $0EB3
0EB0   09 02      ORA #$02
0EB2   C8         INY
0EB3   4A         LSR A
0EB4   4A         LSR A
0EB5   AA         TAX
0EB6   B0 01      BCS $0EB9
0EB8   C8         INY
0EB9   B1 00      LDA ($00),Y
0EBB   8D 07 20   STA $2007
0EBE   CA         DEX
0EBF   D0 F5      BNE $0EB6
0EC1   38         SEC
0EC2   98         TYA
0EC3   65 00      ADC $00
0EC5   85 00      STA $00
0EC7   A9 00      LDA #$00
0EC9   65 01      ADC $01
0ECB   85 01      STA $01
0ECD   A9 3F      LDA #$3F
0ECF   8D 06 20   STA $2006
0ED2   A9 00      LDA #$00
0ED4   8D 06 20   STA $2006
0ED7   8D 06 20   STA $2006
0EDA   8D 06 20   STA $2006
0EDD   AE 02 20   LDX $2002
0EE0   A0 00      LDY #$00
0EE2   B1 00      LDA ($00),Y
0EE4   D0 AC      BNE $0E92
0EE6   8D 05 20   STA $2005
0EE9   8D 05 20   STA $2005
0EEC   60         RTS
0EED   8D 00 20   STA $2000
0EF0   8D 78 07   STA $0778
0EF3   60         RTS
0EF4   F0 06      BEQ $0EFC
0EF6   62         ???
0EF7   06 62      ASL $62
0EF9   06 6D      ASL $6D
0EFB   02         ???
0EFC   6D 02 7A   ADC $7A02
0EFF   03         ???
0F00   06 0C      ASL $0C
0F02   12         ???
0F03   18         CLC
0F04   1E 24 85   ASL $8524,X
0F07   00         BRK
0F08   20 11 8F   JSR $8F11
0F0B   A5 00      LDA $00
0F0D   4A         LSR A
0F0E   4A         LSR A
0F0F   4A         LSR A
0F10   4A         LSR A
0F11   18         CLC
0F12   69 01      ADC #$01
0F14   29 0F      AND #$0F
0F16   C9 06      CMP #$06
0F18   B0 44      BCS $0F5E
0F1A   48         PHA
0F1B   0A         ASL A
0F1C   A8         TAY
0F1D   AE 00 03   LDX $0300
0F20   A9 20      LDA #$20
0F22   C0 00      CPY #$00
0F24   D0 02      BNE $0F28
0F26   A9 22      LDA #$22
0F28   9D 01 03   STA $0301,X
0F2B   B9 F4 8E   LDA $8EF4,Y
0F2E   9D 02 03   STA $0302,X
0F31   B9 F5 8E   LDA $8EF5,Y
0F34   9D 03 03   STA $0303,X
0F37   85 03      STA $03
0F39   86 02      STX $02
0F3B   68         PLA
0F3C   AA         TAX
0F3D   BD 00 8F   LDA $8F00,X
0F40   38         SEC
0F41   F9 F5 8E   SBC $8EF5,Y
0F44   A8         TAY
0F45   A6 02      LDX $02
0F47   B9 D7 07   LDA $07D7,Y
0F4A   9D 04 03   STA $0304,X
0F4D   E8         INX
0F4E   C8         INY
0F4F   C6 03      DEC $03
0F51   D0 F4      BNE $0F47
0F53   A9 00      LDA #$00
0F55   9D 04 03   STA $0304,X
0F58   E8         INX
0F59   E8         INX
0F5A   E8         INX
0F5B   8E 00 03   STX $0300
0F5E   60         RTS
0F5F   AD 70 07   LDA $0770
0F62   C9 00      CMP #$00
0F64   F0 16      BEQ $0F7C
0F66   A2 05      LDX #$05
0F68   BD 34 01   LDA $0134,X
0F6B   18         CLC
0F6C   79 D7 07   ADC $07D7,Y
0F6F   30 16      BMI $0F87
0F71   C9 0A      CMP #$0A
0F73   B0 19      BCS $0F8E
0F75   99 D7 07   STA $07D7,Y
0F78   88         DEY
0F79   CA         DEX
0F7A   10 EC      BPL $0F68
0F7C   A9 00      LDA #$00
0F7E   A2 06      LDX #$06
0F80   9D 33 01   STA $0133,X
0F83   CA         DEX
0F84   10 FA      BPL $0F80
0F86   60         RTS
0F87   DE 33 01   DEC $0133,X
0F8A   A9 09      LDA #$09
0F8C   D0 E7      BNE $0F75
0F8E   38         SEC
0F8F   E9 0A      SBC #$0A
0F91   FE 33 01   INC $0133,X
0F94   4C 75 8F   JMP $8F75
0F97   A2 05      LDX #$05
0F99   20 9E 8F   JSR $8F9E
0F9C   A2 0B      LDX #$0B
0F9E   A0 05      LDY #$05
0FA0   38         SEC
0FA1   BD DD 07   LDA $07DD,X
0FA4   F9 D7 07   SBC $07D7,Y
0FA7   CA         DEX
0FA8   88         DEY
0FA9   10 F6      BPL $0FA1
0FAB   90 0E      BCC $0FBB
0FAD   E8         INX
0FAE   C8         INY
0FAF   BD DD 07   LDA $07DD,X
0FB2   99 D7 07   STA $07D7,Y
0FB5   E8         INX
0FB6   C8         INY
0FB7   C0 06      CPY #$06
0FB9   90 F4      BCC $0FAF
0FBB   60         RTS
0FBC   04         ???
0FBD   30 48      BMI $1007
0FBF   60         RTS
0FC0   78         SEI
0FC1   90 A8      BCC $0F6B
0FC3   C0 D8      CPY #$D8
0FC5   E8         INX
0FC6   24 F8      BIT $F8
0FC8   FC         ???
0FC9   28         PLP
0FCA   2C 18 FF   BIT $FF18
0FCD   23         ???
0FCE   58         CLI
0FCF   A0 6F      LDY #$6F
0FD1   20 CC 90   JSR $90CC
0FD4   A0 1F      LDY #$1F
0FD6   99 B0 07   STA $07B0,Y
0FD9   88         DEY
0FDA   10 FA      BPL $0FD6
0FDC   A9 18      LDA #$18
0FDE   8D A2 07   STA $07A2
0FE1   20 03 9C   JSR $9C03
0FE4   A0 4B      LDY #$4B
0FE6   20 CC 90   JSR $90CC
0FE9   A2 21      LDX #$21
0FEB   A9 00      LDA #$00
0FED   9D 80 07   STA $0780,X
0FF0   CA         DEX
0FF1   10 FA      BPL $0FED
0FF3   AD 5B 07   LDA $075B
0FF6   AC 52 07   LDY $0752
0FF9   F0 03      BEQ $0FFE
0FFB   AD 51 07   LDA $0751
0FFE   8D 1A 07   STA $071A
1001   8D 25 07   STA $0725
1004   8D 28 07   STA $0728
1007   20 38 B0   JSR $B038
100A   A0 20      LDY #$20
100C   29 01      AND #$01
100E   F0 02      BEQ $1012
1010   A0 24      LDY #$24
1012   8C 20 07   STY $0720
1015   A0 80      LDY #$80
1017   8C 21 07   STY $0721
101A   0A         ASL A
101B   0A         ASL A
101C   0A         ASL A
101D   0A         ASL A
101E   8D A0 06   STA $06A0
1021   CE 30 07   DEC $0730
1024   CE 31 07   DEC $0731
1027   CE 32 07   DEC $0732
102A   A9 0B      LDA #$0B
102C   8D 1E 07   STA $071E
102F   20 22 9C   JSR $9C22
1032   AD 6A 07   LDA $076A
1035   D0 10      BNE $1047
1037   AD 5F 07   LDA $075F
103A   C9 04      CMP #$04
103C   90 0C      BCC $104A
103E   D0 07      BNE $1047
1040   AD 5C 07   LDA $075C
1043   C9 02      CMP #$02
1045   90 03      BCC $104A
1047   EE CC 06   INC $06CC
104A   AD 5B 07   LDA $075B
104D   F0 05      BEQ $1054
104F   A9 02      LDA #$02
1051   8D 10 07   STA $0710
1054   A9 80      LDA #$80
1056   85 FB      STA $FB
1058   A9 01      LDA #$01
105A   8D 74 07   STA $0774
105D   EE 72 07   INC $0772
1060   60         RTS
1061   A9 01      LDA #$01
1063   8D 57 07   STA $0757
1066   8D 54 07   STA $0754
1069   A9 02      LDA #$02
106B   8D 5A 07   STA $075A
106E   8D 61 07   STA $0761
1071   A9 00      LDA #$00
1073   8D 74 07   STA $0774
1076   A8         TAY
1077   99 00 03   STA $0300,Y
107A   C8         INY
107B   D0 FA      BNE $1077
107D   8D 59 07   STA $0759
1080   8D 69 07   STA $0769
1083   8D 28 07   STA $0728
1086   A9 FF      LDA #$FF
1088   8D A0 03   STA $03A0
108B   AD 1A 07   LDA $071A
108E   4E 78 07   LSR $0778
1091   29 01      AND #$01
1093   6A         ROR A
1094   2E 78 07   ROL $0778
1097   20 ED 90   JSR $90ED
109A   A9 38      LDA #$38
109C   8D E3 06   STA $06E3
109F   A9 48      LDA #$48
10A1   8D E2 06   STA $06E2
10A4   A9 58      LDA #$58
10A6   8D E1 06   STA $06E1
10A9   A2 0E      LDX #$0E
10AB   BD BC 8F   LDA $8FBC,X
10AE   9D E4 06   STA $06E4,X
10B1   CA         DEX
10B2   10 F7      BPL $10AB
10B4   A0 03      LDY #$03
10B6   B9 CB 8F   LDA $8FCB,Y
10B9   99 00 02   STA $0200,Y
10BC   88         DEY
10BD   10 F7      BPL $10B6
10BF   20 AF 92   JSR $92AF
10C2   20 AA 92   JSR $92AA
10C5   EE 22 07   INC $0722
10C8   EE 72 07   INC $0772
10CB   60         RTS
10CC   A2 07      LDX #$07
10CE   A9 00      LDA #$00
10D0   85 06      STA $06
10D2   86 07      STX $07
10D4   E0 01      CPX #$01
10D6   D0 04      BNE $10DC
10D8   C0 60      CPY #$60
10DA   B0 02      BCS $10DE
10DC   91 06      STA ($06),Y
10DE   88         DEY
10DF   C0 FF      CPY #$FF
10E1   D0 F1      BNE $10D4
10E3   CA         DEX
10E4   10 EC      BPL $10D2
10E6   60         RTS
10E7   02         ???
10E8   01 04      ORA ($04,X)
10EA   08         PHP
10EB   10 20      BPL $110D
10ED   AD 70 07   LDA $0770
10F0   F0 23      BEQ $1115
10F2   AD 52 07   LDA $0752
10F5   C9 02      CMP #$02
10F7   F0 0D      BEQ $1106
10F9   A0 05      LDY #$05
10FB   AD 10 07   LDA $0710
10FE   C9 06      CMP #$06
1100   F0 0E      BEQ $1110
1102   C9 07      CMP #$07
1104   F0 0A      BEQ $1110
1106   AC 4E 07   LDY $074E
1109   AD 43 07   LDA $0743
110C   F0 02      BEQ $1110
110E   A0 04      LDY #$04
1110   B9 E7 90   LDA $90E7,Y
1113   85 FB      STA $FB
1115   60         RTS
1116   28         PLP
1117   18         CLC
1118   38         SEC
1119   28         PLP
111A   08         PHP
111B   00         BRK
111C   00         BRK
111D   20 B0 50   JSR $50B0
1120   00         BRK
1121   00         BRK
1122   B0 B0      BCS $10D4
1124   F0 00      BEQ $1126
1126   20 00 00   JSR $0000
1129   00         BRK
112A   00         BRK
112B   00         BRK
112C   00         BRK
112D   20 04 03   JSR $0304
1130   02         ???
1131   AD 1A 07   LDA $071A
1134   85 6D      STA $6D
1136   A9 28      LDA #$28
1138   8D 0A 07   STA $070A
113B   A9 01      LDA #$01
113D   85 33      STA $33
113F   85 B5      STA $B5
1141   A9 00      LDA #$00
1143   85 1D      STA $1D
1145   CE 90 04   DEC $0490
1148   A0 00      LDY #$00
114A   8C 5B 07   STY $075B
114D   AD 4E 07   LDA $074E
1150   D0 01      BNE $1153
1152   C8         INY
1153   8C 04 07   STY $0704
1156   AE 10 07   LDX $0710
1159   AC 52 07   LDY $0752
115C   F0 07      BEQ $1165
115E   C0 01      CPY #$01
1160   F0 03      BEQ $1165
1162   BE 18 91   LDX $9118,Y
1165   B9 16 91   LDA $9116,Y
1168   85 86      STA $86
116A   BD 1C 91   LDA $911C,X
116D   85 CE      STA $CE
116F   BD 25 91   LDA $9125,X
1172   8D C4 03   STA $03C4
1175   20 F1 85   JSR $85F1
1178   AC 15 07   LDY $0715
117B   F0 1A      BEQ $1197
117D   AD 57 07   LDA $0757
1180   F0 15      BEQ $1197
1182   B9 2D 91   LDA $912D,Y
1185   8D F8 07   STA $07F8
1188   A9 01      LDA #$01
118A   8D FA 07   STA $07FA
118D   4A         LSR A
118E   8D F9 07   STA $07F9
1191   8D 57 07   STA $0757
1194   8D 9F 07   STA $079F
1197   AC 58 07   LDY $0758
119A   F0 14      BEQ $11B0
119C   A9 03      LDA #$03
119E   85 1D      STA $1D
11A0   A2 00      LDX #$00
11A2   20 84 BD   JSR $BD84
11A5   A9 F0      LDA #$F0
11A7   85 D7      STA $D7
11A9   A2 05      LDX #$05
11AB   A0 00      LDY #$00
11AD   20 1E B9   JSR $B91E
11B0   AC 4E 07   LDY $074E
11B3   D0 03      BNE $11B8
11B5   20 0B B7   JSR $B70B
11B8   A9 07      LDA #$07
11BA   85 0E      STA $0E
11BC   60         RTS
11BD   56 40      LSR $40,X
11BF   65 70      ADC $70
11C1   66 40      ROR $40
11C3   66 40      ROR $40
11C5   66 40      ROR $40
11C7   66 60      ROR $60
11C9   65 70      ADC $70
11CB   00         BRK
11CC   00         BRK
11CD   EE 74 07   INC $0774
11D0   A9 00      LDA #$00
11D2   8D 22 07   STA $0722
11D5   A9 80      LDA #$80
11D7   85 FC      STA $FC
11D9   CE 5A 07   DEC $075A
11DC   10 0B      BPL $11E9
11DE   A9 00      LDA #$00
11E0   8D 72 07   STA $0772
11E3   A9 03      LDA #$03
11E5   8D 70 07   STA $0770
11E8   60         RTS
11E9   AD 5F 07   LDA $075F
11EC   0A         ASL A
11ED   AA         TAX
11EE   AD 5C 07   LDA $075C
11F1   29 02      AND #$02
11F3   F0 01      BEQ $11F6
11F5   E8         INX
11F6   BC BD 91   LDY $91BD,X
11F9   AD 5C 07   LDA $075C
11FC   4A         LSR A
11FD   98         TYA
11FE   B0 04      BCS $1204
1200   4A         LSR A
1201   4A         LSR A
1202   4A         LSR A
1203   4A         LSR A
1204   29 0F      AND #$0F
1206   CD 1A 07   CMP $071A
1209   F0 04      BEQ $120F
120B   90 02      BCC $120F
120D   A9 00      LDA #$00
120F   8D 5B 07   STA $075B
1212   20 82 92   JSR $9282
1215   4C 64 92   JMP $9264
1218   AD 72 07   LDA $0772
121B   20 04 8E   JSR $8E04
121E   24 92      BIT $92
1220   67         ???
1221   85 37      STA $37
1223   92         ???
1224   A9 00      LDA #$00
1226   8D 3C 07   STA $073C
1229   8D 22 07   STA $0722
122C   A9 02      LDA #$02
122E   85 FC      STA $FC
1230   EE 74 07   INC $0774
1233   EE 72 07   INC $0772
1236   60         RTS
1237   A9 00      LDA #$00
1239   8D 74 07   STA $0774
123C   AD FC 06   LDA $06FC
123F   29 10      AND #$10
1241   D0 05      BNE $1248
1243   AD A0 07   LDA $07A0
1246   D0 39      BNE $1281
1248   A9 80      LDA #$80
124A   85 FC      STA $FC
124C   20 82 92   JSR $9282
124F   90 13      BCC $1264
1251   AD 5F 07   LDA $075F
1254   8D FD 07   STA $07FD
1257   A9 00      LDA #$00
1259   0A         ASL A
125A   8D 72 07   STA $0772
125D   8D A0 07   STA $07A0
1260   8D 70 07   STA $0770
1263   60         RTS
1264   20 03 9C   JSR $9C03
1267   A9 01      LDA #$01
1269   8D 54 07   STA $0754
126C   EE 57 07   INC $0757
126F   A9 00      LDA #$00
1271   8D 47 07   STA $0747
1274   8D 56 07   STA $0756
1277   85 0E      STA $0E
1279   8D 72 07   STA $0772
127C   A9 01      LDA #$01
127E   8D 70 07   STA $0770
1281   60         RTS
1282   38         SEC
1283   AD 7A 07   LDA $077A
1286   F0 21      BEQ $12A9
1288   AD 61 07   LDA $0761
128B   30 1C      BMI $12A9
128D   AD 53 07   LDA $0753
1290   49 01      EOR #$01
1292   8D 53 07   STA $0753
1295   A2 06      LDX #$06
1297   BD 5A 07   LDA $075A,X
129A   48         PHA
129B   BD 61 07   LDA $0761,X
129E   9D 5A 07   STA $075A,X
12A1   68         PLA
12A2   9D 61 07   STA $0761,X
12A5   CA         DEX
12A6   10 EF      BPL $1297
12A8   18         CLC
12A9   60         RTS
12AA   A9 FF      LDA #$FF
12AC   8D C9 06   STA $06C9
12AF   60         RTS
12B0   AC 1F 07   LDY $071F
12B3   D0 05      BNE $12BA
12B5   A0 08      LDY #$08
12B7   8C 1F 07   STY $071F
12BA   88         DEY
12BB   98         TYA
12BC   20 C8 92   JSR $92C8
12BF   CE 1F 07   DEC $071F
12C2   D0 03      BNE $12C7
12C4   20 6A 89   JSR $896A
12C7   60         RTS
12C8   20 04 8E   JSR $8E04
12CB   DB         ???
12CC   92         ???
12CD   AE 88 AE   LDX $AE88
12D0   88         DEY
12D1   FC         ???
12D2   93         ???
12D3   DB         ???
12D4   92         ???
12D5   AE 88 AE   LDX $AE88
12D8   88         DEY
12D9   FC         ???
12DA   93         ???
12DB   EE 26 07   INC $0726
12DE   AD 26 07   LDA $0726
12E1   29 0F      AND #$0F
12E3   D0 06      BNE $12EB
12E5   8D 26 07   STA $0726
12E8   EE 25 07   INC $0725
12EB   EE A0 06   INC $06A0
12EE   AD A0 06   LDA $06A0
12F1   29 1F      AND #$1F
12F3   8D A0 06   STA $06A0
12F6   60         RTS
12F7   00         BRK
12F8   30 60      BMI $135A
12FA   93         ???
12FB   00         BRK
12FC   00         BRK
12FD   11 12      ORA ($12),Y
12FF   12         ???
1300   13         ???
1301   00         BRK
1302   00         BRK
1303   51 52      EOR ($52),Y
1305   53         ???
1306   00         BRK
1307   00         BRK
1308   00         BRK
1309   00         BRK
130A   00         BRK
130B   00         BRK
130C   01 02      ORA ($02,X)
130E   02         ???
130F   03         ???
1310   00         BRK
1311   00         BRK
1312   00         BRK
1313   00         BRK
1314   00         BRK
1315   00         BRK
1316   91 92      STA ($92),Y
1318   93         ???
1319   00         BRK
131A   00         BRK
131B   00         BRK
131C   00         BRK
131D   51 52      EOR ($52),Y
131F   53         ???
1320   41 42      EOR ($42,X)
1322   43         ???
1323   00         BRK
1324   00         BRK
1325   00         BRK
1326   00         BRK
1327   00         BRK
1328   91 92      STA ($92),Y
132A   97         ???
132B   87         ???
132C   88         DEY
132D   89         ???
132E   99 00 00   STA $0000,Y
1331   00         BRK
1332   11 12      ORA ($12),Y
1334   13         ???
1335   A4 A5      LDY $A5
1337   A5 A5      LDA $A5
1339   A6 97      LDX $97
133B   98         TYA
133C   99 01 02   STA $0201,Y
133F   03         ???
1340   00         BRK
1341   A4 A5      LDY $A5
1343   A6 00      LDX $00
1345   11 12      ORA ($12),Y
1347   12         ???
1348   12         ???
1349   13         ???
134A   00         BRK
134B   00         BRK
134C   00         BRK
134D   00         BRK
134E   01 02      ORA ($02,X)
1350   02         ???
1351   03         ???
1352   00         BRK
1353   A4 A5      LDY $A5
1355   A5 A6      LDA $A6
1357   00         BRK
1358   00         BRK
1359   00         BRK
135A   11 12      ORA ($12),Y
135C   12         ???
135D   13         ???
135E   00         BRK
135F   00         BRK
1360   00         BRK
1361   00         BRK
1362   00         BRK
1363   00         BRK
1364   00         BRK
1365   9C         ???
1366   00         BRK
1367   8B         ???
1368   AA         TAX
1369   AA         TAX
136A   AA         TAX
136B   AA         TAX
136C   11 12      ORA ($12),Y
136E   13         ???
136F   8B         ???
1370   00         BRK
1371   9C         ???
1372   9C         ???
1373   00         BRK
1374   00         BRK
1375   01 02      ORA ($02,X)
1377   03         ???
1378   11 12      ORA ($12),Y
137A   12         ???
137B   13         ???
137C   00         BRK
137D   00         BRK
137E   00         BRK
137F   00         BRK
1380   AA         TAX
1381   AA         TAX
1382   9C         ???
1383   AA         TAX
1384   00         BRK
1385   8B         ???
1386   00         BRK
1387   01 02      ORA ($02,X)
1389   03         ???
138A   80         ???
138B   83         ???
138C   00         BRK
138D   81 84      STA ($84,X)
138F   00         BRK
1390   82         ???
1391   85 00      STA $00
1393   02         ???
1394   00         BRK
1395   00         BRK
1396   03         ???
1397   00         BRK
1398   00         BRK
1399   04         ???
139A   00         BRK
139B   00         BRK
139C   00         BRK
139D   05 06      ORA $06
139F   07         ???
13A0   06 0A      ASL $0A
13A2   00         BRK
13A3   08         PHP
13A4   09 4D      ORA #$4D
13A6   00         BRK
13A7   00         BRK
13A8   0D 0F 4E   ORA $4E0F
13AB   0E 4E 4E   ASL $4E4E
13AE   00         BRK
13AF   0D 1A 86   ORA $861A
13B2   87         ???
13B3   87         ???
13B4   87         ???
13B5   87         ???
13B6   87         ???
13B7   87         ???
13B8   87         ???
13B9   87         ???
13BA   87         ???
13BB   87         ???
13BC   69 69      ADC #$69
13BE   00         BRK
13BF   00         BRK
13C0   00         BRK
13C1   00         BRK
13C2   00         BRK
13C3   45 47      EOR $47
13C5   47         ???
13C6   47         ???
13C7   47         ???
13C8   47         ???
13C9   00         BRK
13CA   00         BRK
13CB   00         BRK
13CC   00         BRK
13CD   00         BRK
13CE   00         BRK
13CF   00         BRK
13D0   00         BRK
13D1   00         BRK
13D2   00         BRK
13D3   00         BRK
13D4   00         BRK
13D5   00         BRK
13D6   86 87      STX $87
13D8   69 54      ADC #$54
13DA   52         ???
13DB   62         ???
13DC   00         BRK
13DD   00         BRK
13DE   00         BRK
13DF   18         CLC
13E0   01 18      ORA ($18,X)
13E2   07         ???
13E3   18         CLC
13E4   0F         ???
13E5   18         CLC
13E6   FF         ???
13E7   18         CLC
13E8   01 1F      ORA ($1F,X)
13EA   07         ???
13EB   1F         ???
13EC   0F         ???
13ED   1F         ???
13EE   81 1F      STA ($1F,X)
13F0   01 00      ORA ($00,X)
13F2   8F         ???
13F3   1F         ???
13F4   F1 1F      SBC ($1F),Y
13F6   F9 18 F1   SBC $F118,Y
13F9   18         CLC
13FA   FF         ???
13FB   1F         ???
13FC   AD 28 07   LDA $0728
13FF   F0 03      BEQ $1404
1401   20 08 95   JSR $9508
1404   A2 0C      LDX #$0C
1406   A9 00      LDA #$00
1408   9D A1 06   STA $06A1,X
140B   CA         DEX
140C   10 FA      BPL $1408
140E   AC 42 07   LDY $0742
1411   F0 42      BEQ $1455
1413   AD 25 07   LDA $0725
1416   C9 03      CMP #$03
1418   30 05      BMI $141F
141A   38         SEC
141B   E9 03      SBC #$03
141D   10 F7      BPL $1416
141F   0A         ASL A
1420   0A         ASL A
1421   0A         ASL A
1422   0A         ASL A
1423   79 F6 92   ADC $92F6,Y
1426   6D 26 07   ADC $0726
1429   AA         TAX
142A   BD FA 92   LDA $92FA,X
142D   F0 26      BEQ $1455
142F   48         PHA
1430   29 0F      AND #$0F
1432   38         SEC
1433   E9 01      SBC #$01
1435   85 00      STA $00
1437   0A         ASL A
1438   65 00      ADC $00
143A   AA         TAX
143B   68         PLA
143C   4A         LSR A
143D   4A         LSR A
143E   4A         LSR A
143F   4A         LSR A
1440   A8         TAY
1441   A9 03      LDA #$03
1443   85 00      STA $00
1445   BD 8A 93   LDA $938A,X
1448   99 A1 06   STA $06A1,Y
144B   E8         INX
144C   C8         INY
144D   C0 0B      CPY #$0B
144F   F0 04      BEQ $1455
1451   C6 00      DEC $00
1453   D0 F0      BNE $1445
1455   AE 41 07   LDX $0741
1458   F0 13      BEQ $146D
145A   BC AD 93   LDY $93AD,X
145D   A2 00      LDX #$00
145F   B9 B1 93   LDA $93B1,Y
1462   F0 03      BEQ $1467
1464   9D A1 06   STA $06A1,X
1467   C8         INY
1468   E8         INX
1469   E0 0D      CPX #$0D
146B   D0 F2      BNE $145F
146D   AC 4E 07   LDY $074E
1470   D0 0C      BNE $147E
1472   AD 5F 07   LDA $075F
1475   C9 07      CMP #$07
1477   D0 05      BNE $147E
1479   A9 62      LDA #$62
147B   4C 88 94   JMP $9488
147E   B9 D8 93   LDA $93D8,Y
1481   AC 43 07   LDY $0743
1484   F0 02      BEQ $1488
1486   A9 88      LDA #$88
1488   85 07      STA $07
148A   A2 00      LDX #$00
148C   AD 27 07   LDA $0727
148F   0A         ASL A
1490   A8         TAY
1491   B9 DC 93   LDA $93DC,Y
1494   85 00      STA $00
1496   C8         INY
1497   84 01      STY $01
1499   AD 43 07   LDA $0743
149C   F0 0A      BEQ $14A8
149E   E0 00      CPX #$00
14A0   F0 06      BEQ $14A8
14A2   A5 00      LDA $00
14A4   29 08      AND #$08
14A6   85 00      STA $00
14A8   A0 00      LDY #$00
14AA   B9 8A C6   LDA $C68A,Y
14AD   24 00      BIT $00
14AF   F0 05      BEQ $14B6
14B1   A5 07      LDA $07
14B3   9D A1 06   STA $06A1,X
14B6   E8         INX
14B7   E0 0D      CPX #$0D
14B9   F0 18      BEQ $14D3
14BB   AD 4E 07   LDA $074E
14BE   C9 02      CMP #$02
14C0   D0 08      BNE $14CA
14C2   E0 0B      CPX #$0B
14C4   D0 04      BNE $14CA
14C6   A9 54      LDA #$54
14C8   85 07      STA $07
14CA   C8         INY
14CB   C0 08      CPY #$08
14CD   D0 DB      BNE $14AA
14CF   A4 01      LDY $01
14D1   D0 BE      BNE $1491
14D3   20 08 95   JSR $9508
14D6   AD A0 06   LDA $06A0
14D9   20 E1 9B   JSR $9BE1
14DC   A2 00      LDX #$00
14DE   A0 00      LDY #$00
14E0   84 00      STY $00
14E2   BD A1 06   LDA $06A1,X
14E5   29 C0      AND #$C0
14E7   0A         ASL A
14E8   2A         ROL A
14E9   2A         ROL A
14EA   A8         TAY
14EB   BD A1 06   LDA $06A1,X
14EE   D9 04 95   CMP $9504,Y
14F1   B0 02      BCS $14F5
14F3   A9 00      LDA #$00
14F5   A4 00      LDY $00
14F7   91 06      STA ($06),Y
14F9   98         TYA
14FA   18         CLC
14FB   69 10      ADC #$10
14FD   A8         TAY
14FE   E8         INX
14FF   E0 0D      CPX #$0D
1501   90 DD      BCC $14E0
1503   60         RTS
1504   10 51      BPL $1557
1506   88         DEY
1507   C0 A2      CPY #$A2
1509   02         ???
150A   86 08      STX $08
150C   A9 00      LDA #$00
150E   8D 29 07   STA $0729
1511   AC 2C 07   LDY $072C
1514   B1 E7      LDA ($E7),Y
1516   C9 FD      CMP #$FD
1518   F0 4B      BEQ $1565
151A   BD 30 07   LDA $0730,X
151D   10 46      BPL $1565
151F   C8         INY
1520   B1 E7      LDA ($E7),Y
1522   0A         ASL A
1523   90 0B      BCC $1530
1525   AD 2B 07   LDA $072B
1528   D0 06      BNE $1530
152A   EE 2B 07   INC $072B
152D   EE 2A 07   INC $072A
1530   88         DEY
1531   B1 E7      LDA ($E7),Y
1533   29 0F      AND #$0F
1535   C9 0D      CMP #$0D
1537   D0 1B      BNE $1554
1539   C8         INY
153A   B1 E7      LDA ($E7),Y
153C   88         DEY
153D   29 40      AND #$40
153F   D0 1C      BNE $155D
1541   AD 2B 07   LDA $072B
1544   D0 17      BNE $155D
1546   C8         INY
1547   B1 E7      LDA ($E7),Y
1549   29 1F      AND #$1F
154B   8D 2A 07   STA $072A
154E   EE 2B 07   INC $072B
1551   4C 6E 95   JMP $956E
1554   C9 0E      CMP #$0E
1556   D0 05      BNE $155D
1558   AD 28 07   LDA $0728
155B   D0 08      BNE $1565
155D   AD 2A 07   LDA $072A
1560   CD 25 07   CMP $0725
1563   90 06      BCC $156B
1565   20 95 95   JSR $9595
1568   4C 71 95   JMP $9571
156B   EE 29 07   INC $0729
156E   20 89 95   JSR $9589
1571   A6 08      LDX $08
1573   BD 30 07   LDA $0730,X
1576   30 03      BMI $157B
1578   DE 30 07   DEC $0730,X
157B   CA         DEX
157C   10 8C      BPL $150A
157E   AD 29 07   LDA $0729
1581   D0 85      BNE $1508
1583   AD 28 07   LDA $0728
1586   D0 80      BNE $1508
1588   60         RTS
1589   EE 2C 07   INC $072C
158C   EE 2C 07   INC $072C
158F   A9 00      LDA #$00
1591   8D 2B 07   STA $072B
1594   60         RTS
1595   BD 30 07   LDA $0730,X
1598   30 03      BMI $159D
159A   BC 2D 07   LDY $072D,X
159D   A2 10      LDX #$10
159F   B1 E7      LDA ($E7),Y
15A1   C9 FD      CMP #$FD
15A3   F0 E3      BEQ $1588
15A5   29 0F      AND #$0F
15A7   C9 0F      CMP #$0F
15A9   F0 08      BEQ $15B3
15AB   A2 08      LDX #$08
15AD   C9 0C      CMP #$0C
15AF   F0 02      BEQ $15B3
15B1   A2 00      LDX #$00
15B3   86 07      STX $07
15B5   A6 08      LDX $08
15B7   C9 0E      CMP #$0E
15B9   D0 08      BNE $15C3
15BB   A9 00      LDA #$00
15BD   85 07      STA $07
15BF   A9 2E      LDA #$2E
15C1   D0 53      BNE $1616
15C3   C9 0D      CMP #$0D
15C5   D0 1B      BNE $15E2
15C7   A9 22      LDA #$22
15C9   85 07      STA $07
15CB   C8         INY
15CC   B1 E7      LDA ($E7),Y
15CE   29 40      AND #$40
15D0   F0 63      BEQ $1635
15D2   B1 E7      LDA ($E7),Y
15D4   29 7F      AND #$7F
15D6   C9 4B      CMP #$4B
15D8   D0 03      BNE $15DD
15DA   EE 45 07   INC $0745
15DD   29 3F      AND #$3F
15DF   4C 16 96   JMP $9616
15E2   C9 0C      CMP #$0C
15E4   B0 27      BCS $160D
15E6   C8         INY
15E7   B1 E7      LDA ($E7),Y
15E9   29 70      AND #$70
15EB   D0 0B      BNE $15F8
15ED   A9 16      LDA #$16
15EF   85 07      STA $07
15F1   B1 E7      LDA ($E7),Y
15F3   29 0F      AND #$0F
15F5   4C 16 96   JMP $9616
15F8   85 00      STA $00
15FA   C9 70      CMP #$70
15FC   D0 0A      BNE $1608
15FE   B1 E7      LDA ($E7),Y
1600   29 08      AND #$08
1602   F0 04      BEQ $1608
1604   A9 00      LDA #$00
1606   85 00      STA $00
1608   A5 00      LDA $00
160A   4C 12 96   JMP $9612
160D   C8         INY
160E   B1 E7      LDA ($E7),Y
1610   29 70      AND #$70
1612   4A         LSR A
1613   4A         LSR A
1614   4A         LSR A
1615   4A         LSR A
1616   85 00      STA $00
1618   BD 30 07   LDA $0730,X
161B   10 42      BPL $165F
161D   AD 2A 07   LDA $072A
1620   CD 25 07   CMP $0725
1623   F0 11      BEQ $1636
1625   AC 2C 07   LDY $072C
1628   B1 E7      LDA ($E7),Y
162A   29 0F      AND #$0F
162C   C9 0E      CMP #$0E
162E   D0 05      BNE $1635
1630   AD 28 07   LDA $0728
1633   D0 21      BNE $1656
1635   60         RTS
1636   AD 28 07   LDA $0728
1639   F0 0B      BEQ $1646
163B   A9 00      LDA #$00
163D   8D 28 07   STA $0728
1640   8D 29 07   STA $0729
1643   85 08      STA $08
1645   60         RTS
1646   AC 2C 07   LDY $072C
1649   B1 E7      LDA ($E7),Y
164B   29 F0      AND #$F0
164D   4A         LSR A
164E   4A         LSR A
164F   4A         LSR A
1650   4A         LSR A
1651   CD 26 07   CMP $0726
1654   D0 DF      BNE $1635
1656   AD 2C 07   LDA $072C
1659   9D 2D 07   STA $072D,X
165C   20 89 95   JSR $9589
165F   A5 00      LDA $00
1661   18         CLC
1662   65 07      ADC $07
1664   20 04 8E   JSR $8E04
1667   E5 98      SBC $98
1669   40         RTI
166A   97         ???
166B   2E 9A 3E   ROL $3E9A
166E   9A         TXS
166F   F2         ???
1670   99 50 9A   STA $9A50,Y
1673   59 9A E5   EOR $E59A,Y
1676   98         TYA
1677   41 9B      EOR ($9B,X)
1679   BA         TSX
167A   97         ???
167B   79 99 7C   ADC $7C99,Y
167E   99 7F 99   STA $997F,Y
1681   57         ???
1682   99 68 99   STA $9968,Y
1685   6B         ???
1686   99 D0 99   STA $99D0,Y
1689   D7         ???
168A   99 06 98   STA $9806,Y
168D   B7         ???
168E   9A         TXS
168F   AB         ???
1690   98         TYA
1691   94 99      STY $99,X
1693   0E 9B 0E   ASL $0E9B
1696   9B         ???
1697   0E 9B 01   ASL $019B
169A   9B         ???
169B   19 9B 19   ORA $199B,Y
169E   9B         ???
169F   19 9B 14   ORA $149B,Y
16A2   9B         ???
16A3   19 9B 6F   ORA $6F9B,Y
16A6   98         TYA
16A7   19 9A D3   ORA $D39A,Y
16AA   9A         TXS
16AB   82         ???
16AC   98         TYA
16AD   9E         ???
16AE   99 09 9A   STA $9A09,Y
16B1   0E 9A 01   ASL $019A
16B4   9A         TXS
16B5   F2         ???
16B6   96 0D      STX $0D,Y
16B8   97         ???
16B9   0D 97 2B   ORA $2B97
16BC   97         ???
16BD   2B         ???
16BE   97         ???
16BF   2B         ???
16C0   97         ???
16C1   45 96      EOR $96
16C3   C5 96      CMP $96
16C5   BC 2D 07   LDY $072D,X
16C8   C8         INY
16C9   B1 E7      LDA ($E7),Y
16CB   48         PHA
16CC   29 40      AND #$40
16CE   D0 12      BNE $16E2
16D0   68         PLA
16D1   48         PHA
16D2   29 0F      AND #$0F
16D4   8D 27 07   STA $0727
16D7   68         PLA
16D8   29 30      AND #$30
16DA   4A         LSR A
16DB   4A         LSR A
16DC   4A         LSR A
16DD   4A         LSR A
16DE   8D 42 07   STA $0742
16E1   60         RTS
16E2   68         PLA
16E3   29 07      AND #$07
16E5   C9 04      CMP #$04
16E7   90 05      BCC $16EE
16E9   8D 44 07   STA $0744
16EC   A9 00      LDA #$00
16EE   8D 41 07   STA $0741
16F1   60         RTS
16F2   A2 04      LDX #$04
16F4   AD 5F 07   LDA $075F
16F7   F0 08      BEQ $1701
16F9   E8         INX
16FA   AC 4E 07   LDY $074E
16FD   88         DEY
16FE   D0 01      BNE $1701
1700   E8         INX
1701   8A         TXA
1702   8D D6 06   STA $06D6
1705   20 08 88   JSR $8808
1708   A9 0D      LDA #$0D
170A   20 16 97   JSR $9716
170D   AD 23 07   LDA $0723
1710   49 01      EOR #$01
1712   8D 23 07   STA $0723
1715   60         RTS
1716   85 00      STA $00
1718   A9 00      LDA #$00
171A   A2 04      LDX #$04
171C   B4 16      LDY $16,X
171E   C4 00      CPY $00
1720   D0 02      BNE $1724
1722   95 0F      STA $0F,X
1724   CA         DEX
1725   10 F5      BPL $171C
1727   60         RTS
1728   14         ???
1729   17         ???
172A   18         CLC
172B   A6 00      LDX $00
172D   BD 20 97   LDA $9720,X
1730   A0 05      LDY #$05
1732   88         DEY
1733   30 07      BMI $173C
1735   D9 16 00   CMP $0016,Y
1738   D0 F8      BNE $1732
173A   A9 00      LDA #$00
173C   8D CD 06   STA $06CD
173F   60         RTS
1740   AD 33 07   LDA $0733
1743   20 04 8E   JSR $8E04
1746   4C 97 78   JMP $7897
1749   97         ???
174A   69 9A      ADC #$9A
174C   20 BB 9B   JSR $9BBB
174F   BD 30 07   LDA $0730,X
1752   F0 1F      BEQ $1773
1754   10 11      BPL $1767
1756   98         TYA
1757   9D 30 07   STA $0730,X
175A   AD 25 07   LDA $0725
175D   0D 26 07   ORA $0726
1760   F0 05      BEQ $1767
1762   A9 16      LDA #$16
1764   4C B0 97   JMP $97B0
1767   A6 07      LDX $07
1769   A9 17      LDA #$17
176B   9D A1 06   STA $06A1,X
176E   A9 4C      LDA #$4C
1770   4C AA 97   JMP $97AA
1773   A9 18      LDA #$18
1775   4C B0 97   JMP $97B0
1778   20 AC 9B   JSR $9BAC
177B   84 06      STY $06
177D   90 0C      BCC $178B
177F   BD 30 07   LDA $0730,X
1782   4A         LSR A
1783   9D 36 07   STA $0736,X
1786   A9 19      LDA #$19
1788   4C B0 97   JMP $97B0
178B   A9 1B      LDA #$1B
178D   BC 30 07   LDY $0730,X
1790   F0 1E      BEQ $17B0
1792   BD 36 07   LDA $0736,X
1795   85 06      STA $06
1797   A6 07      LDX $07
1799   A9 1A      LDA #$1A
179B   9D A1 06   STA $06A1,X
179E   C4 06      CPY $06
17A0   D0 2C      BNE $17CE
17A2   E8         INX
17A3   A9 4F      LDA #$4F
17A5   9D A1 06   STA $06A1,X
17A8   A9 50      LDA #$50
17AA   E8         INX
17AB   A0 0F      LDY #$0F
17AD   4C 7D 9B   JMP $9B7D
17B0   A6 07      LDX $07
17B2   A0 00      LDY #$00
17B4   4C 7D 9B   JMP $9B7D
17B7   42         ???
17B8   41 43      EOR ($43,X)
17BA   20 AC 9B   JSR $9BAC
17BD   A0 00      LDY #$00
17BF   B0 07      BCS $17C8
17C1   C8         INY
17C2   BD 30 07   LDA $0730,X
17C5   D0 01      BNE $17C8
17C7   C8         INY
17C8   B9 B7 97   LDA $97B7,Y
17CB   8D A1 06   STA $06A1
17CE   60         RTS
17CF   00         BRK
17D0   45 45      EOR $45
17D2   45 00      EOR $00
17D4   00         BRK
17D5   48         PHA
17D6   47         ???
17D7   46 00      LSR $00
17D9   45 49      EOR $49
17DB   49 49      EOR #$49
17DD   45 47      EOR $47
17DF   47         ???
17E0   4A         LSR A
17E1   47         ???
17E2   47         ???
17E3   47         ???
17E4   47         ???
17E5   4B         ???
17E6   47         ???
17E7   47         ???
17E8   49 49      EOR #$49
17EA   49 49      EOR #$49
17EC   49 47      EOR #$47
17EE   4A         LSR A
17EF   47         ???
17F0   4A         LSR A
17F1   47         ???
17F2   47         ???
17F3   4B         ???
17F4   47         ???
17F5   4B         ???
17F6   47         ???
17F7   47         ???
17F8   47         ???
17F9   47         ???
17FA   47         ???
17FB   47         ???
17FC   4A         LSR A
17FD   47         ???
17FE   4A         LSR A
17FF   47         ???
1800   4A         LSR A
1801   4B         ???
1802   47         ???
1803   4B         ???
1804   47         ???
1805   4B         ???
1806   20 BB 9B   JSR $9BBB
1809   84 07      STY $07
180B   A0 04      LDY #$04
180D   20 AF 9B   JSR $9BAF
1810   8A         TXA
1811   48         PHA
1812   BC 30 07   LDY $0730,X
1815   A6 07      LDX $07
1817   A9 0B      LDA #$0B
1819   85 06      STA $06
181B   B9 CF 97   LDA $97CF,Y
181E   9D A1 06   STA $06A1,X
1821   E8         INX
1822   A5 06      LDA $06
1824   F0 07      BEQ $182D
1826   C8         INY
1827   C8         INY
1828   C8         INY
1829   C8         INY
182A   C8         INY
182B   C6 06      DEC $06
182D   E0 0B      CPX #$0B
182F   D0 EA      BNE $181B
1831   68         PLA
1832   AA         TAX
1833   AD 25 07   LDA $0725
1836   F0 36      BEQ $186E
1838   BD 30 07   LDA $0730,X
183B   C9 01      CMP #$01
183D   F0 2A      BEQ $1869
183F   A4 07      LDY $07
1841   D0 04      BNE $1847
1843   C9 03      CMP #$03
1845   F0 22      BEQ $1869
1847   C9 02      CMP #$02
1849   D0 23      BNE $186E
184B   20 CB 9B   JSR $9BCB
184E   48         PHA
184F   20 4A 99   JSR $994A
1852   68         PLA
1853   95 87      STA $87,X
1855   AD 25 07   LDA $0725
1858   95 6E      STA $6E,X
185A   A9 01      LDA #$01
185C   95 B6      STA $B6,X
185E   95 0F      STA $0F,X
1860   A9 90      LDA #$90
1862   95 CF      STA $CF,X
1864   A9 31      LDA #$31
1866   95 16      STA $16,X
1868   60         RTS
1869   A0 52      LDY #$52
186B   8C AB 06   STY $06AB
186E   60         RTS
186F   20 BB 9B   JSR $9BBB
1872   BC 30 07   LDY $0730,X
1875   A6 07      LDX $07
1877   A9 6B      LDA #$6B
1879   9D A1 06   STA $06A1,X
187C   A9 6C      LDA #$6C
187E   9D A2 06   STA $06A2,X
1881   60         RTS
1882   A0 03      LDY #$03
1884   20 AF 9B   JSR $9BAF
1887   A0 0A      LDY #$0A
1889   20 B3 98   JSR $98B3
188C   B0 10      BCS $189E
188E   A2 06      LDX #$06
1890   A9 00      LDA #$00
1892   9D A1 06   STA $06A1,X
1895   CA         DEX
1896   10 F8      BPL $1890
1898   B9 DD 98   LDA $98DD,Y
189B   8D A8 06   STA $06A8
189E   60         RTS
189F   15 14      ORA $14,X
18A1   00         BRK
18A2   00         BRK
18A3   15 1E      ORA $1E,X
18A5   1D 1C 15   ORA $151C,X
18A8   21 20      AND ($20,X)
18AA   1F         ???
18AB   A0 03      LDY #$03
18AD   20 AF 9B   JSR $9BAF
18B0   20 BB 9B   JSR $9BBB
18B3   88         DEY
18B4   88         DEY
18B5   84 05      STY $05
18B7   BC 30 07   LDY $0730,X
18BA   84 06      STY $06
18BC   A6 05      LDX $05
18BE   E8         INX
18BF   B9 9F 98   LDA $989F,Y
18C2   C9 00      CMP #$00
18C4   F0 08      BEQ $18CE
18C6   A2 00      LDX #$00
18C8   A4 05      LDY $05
18CA   20 7D 9B   JSR $9B7D
18CD   18         CLC
18CE   A4 06      LDY $06
18D0   B9 A3 98   LDA $98A3,Y
18D3   9D A1 06   STA $06A1,X
18D6   B9 A7 98   LDA $98A7,Y
18D9   9D A2 06   STA $06A2,X
18DC   60         RTS
18DD   11 10      ORA ($10),Y
18DF   15 14      ORA $14,X
18E1   13         ???
18E2   12         ???
18E3   15 14      ORA $14,X
18E5   20 39 99   JSR $9939
18E8   A5 00      LDA $00
18EA   F0 04      BEQ $18F0
18EC   C8         INY
18ED   C8         INY
18EE   C8         INY
18EF   C8         INY
18F0   98         TYA
18F1   48         PHA
18F2   AD 60 07   LDA $0760
18F5   0D 5F 07   ORA $075F
18F8   F0 2B      BEQ $1925
18FA   BC 30 07   LDY $0730,X
18FD   F0 26      BEQ $1925
18FF   20 4A 99   JSR $994A
1902   B0 21      BCS $1925
1904   20 CB 9B   JSR $9BCB
1907   18         CLC
1908   69 08      ADC #$08
190A   95 87      STA $87,X
190C   AD 25 07   LDA $0725
190F   69 00      ADC #$00
1911   95 6E      STA $6E,X
1913   A9 01      LDA #$01
1915   95 B6      STA $B6,X
1917   95 0F      STA $0F,X
1919   20 D3 9B   JSR $9BD3
191C   95 CF      STA $CF,X
191E   A9 0D      LDA #$0D
1920   95 16      STA $16,X
1922   20 87 C7   JSR $C787
1925   68         PLA
1926   A8         TAY
1927   A6 07      LDX $07
1929   B9 DD 98   LDA $98DD,Y
192C   9D A1 06   STA $06A1,X
192F   E8         INX
1930   B9 DF 98   LDA $98DF,Y
1933   A4 06      LDY $06
1935   88         DEY
1936   4C 7D 9B   JMP $9B7D
1939   A0 01      LDY #$01
193B   20 AF 9B   JSR $9BAF
193E   20 BB 9B   JSR $9BBB
1941   98         TYA
1942   29 07      AND #$07
1944   85 06      STA $06
1946   BC 30 07   LDY $0730,X
1949   60         RTS
194A   A2 00      LDX #$00
194C   18         CLC
194D   B5 0F      LDA $0F,X
194F   F0 05      BEQ $1956
1951   E8         INX
1952   E0 05      CPX #$05
1954   D0 F6      BNE $194C
1956   60         RTS
1957   20 AC 9B   JSR $9BAC
195A   A9 86      LDA #$86
195C   8D AB 06   STA $06AB
195F   A2 0B      LDX #$0B
1961   A0 01      LDY #$01
1963   A9 87      LDA #$87
1965   4C 7D 9B   JMP $9B7D
1968   A9 03      LDA #$03
196A   2C A9 07   BIT $07A9
196D   48         PHA
196E   20 AC 9B   JSR $9BAC
1971   68         PLA
1972   AA         TAX
1973   A9 C0      LDA #$C0
1975   9D A1 06   STA $06A1,X
1978   60         RTS
1979   A9 06      LDA #$06
197B   2C A9 07   BIT $07A9
197E   2C A9 09   BIT $09A9
1981   48         PHA
1982   20 AC 9B   JSR $9BAC
1985   68         PLA
1986   AA         TAX
1987   A9 0B      LDA #$0B
1989   9D A1 06   STA $06A1,X
198C   E8         INX
198D   A0 00      LDY #$00
198F   A9 63      LDA #$63
1991   4C 7D 9B   JMP $9B7D
1994   20 BB 9B   JSR $9BBB
1997   A2 02      LDX #$02
1999   A9 6D      LDA #$6D
199B   4C 7D 9B   JMP $9B7D
199E   A9 24      LDA #$24
19A0   8D A1 06   STA $06A1
19A3   A2 01      LDX #$01
19A5   A0 08      LDY #$08
19A7   A9 25      LDA #$25
19A9   20 7D 9B   JSR $9B7D
19AC   A9 61      LDA #$61
19AE   8D AB 06   STA $06AB
19B1   20 CB 9B   JSR $9BCB
19B4   38         SEC
19B5   E9 08      SBC #$08
19B7   85 8C      STA $8C
19B9   AD 25 07   LDA $0725
19BC   E9 00      SBC #$00
19BE   85 73      STA $73
19C0   A9 30      LDA #$30
19C2   85 D4      STA $D4
19C4   A9 B0      LDA #$B0
19C6   8D 0D 01   STA $010D
19C9   A9 30      LDA #$30
19CB   85 1B      STA $1B
19CD   E6 14      INC $14
19CF   60         RTS
19D0   A2 00      LDX #$00
19D2   A0 0F      LDY #$0F
19D4   4C E9 99   JMP $99E9
19D7   8A         TXA
19D8   48         PHA
19D9   A2 01      LDX #$01
19DB   A0 0F      LDY #$0F
19DD   A9 44      LDA #$44
19DF   20 7D 9B   JSR $9B7D
19E2   68         PLA
19E3   AA         TAX
19E4   20 BB 9B   JSR $9BBB
19E7   A2 01      LDX #$01
19E9   A9 40      LDA #$40
19EB   4C 7D 9B   JMP $9B7D
19EE   C3         ???
19EF   C2         ???
19F0   C2         ???
19F1   C2         ???
19F2   AC 4E 07   LDY $074E
19F5   B9 EE 99   LDA $99EE,Y
19F8   4C 44 9A   JMP $9A44
19FB   06 07      ASL $07
19FD   08         PHP
19FE   C5 0C      CMP $0C
1A00   89         ???
1A01   A0 0C      LDY #$0C
1A03   20 AF 9B   JSR $9BAF
1A06   4C 0E 9A   JMP $9A0E
1A09   A9 08      LDA #$08
1A0B   8D 73 07   STA $0773
1A0E   A4 00      LDY $00
1A10   BE F9 99   LDX $99F9,Y
1A13   B9 FC 99   LDA $99FC,Y
1A16   4C 20 9A   JMP $9A20
1A19   20 BB 9B   JSR $9BBB
1A1C   A6 07      LDX $07
1A1E   A9 C4      LDA #$C4
1A20   A0 00      LDY #$00
1A22   4C 7D 9B   JMP $9B7D
1A25   69 61      ADC #$61
1A27   61 62      ADC ($62,X)
1A29   22         ???
1A2A   51 52      EOR ($52),Y
1A2C   52         ???
1A2D   88         DEY
1A2E   AC 4E 07   LDY $074E
1A31   AD 43 07   LDA $0743
1A34   F0 02      BEQ $1A38
1A36   A0 04      LDY #$04
1A38   B9 29 9A   LDA $9A29,Y
1A3B   4C 44 9A   JMP $9A44
1A3E   AC 4E 07   LDY $074E
1A41   B9 25 9A   LDA $9A25,Y
1A44   48         PHA
1A45   20 AC 9B   JSR $9BAC
1A48   A6 07      LDX $07
1A4A   A0 00      LDY #$00
1A4C   68         PLA
1A4D   4C 7D 9B   JMP $9B7D
1A50   AC 4E 07   LDY $074E
1A53   B9 29 9A   LDA $9A29,Y
1A56   4C 5F 9A   JMP $9A5F
1A59   AC 4E 07   LDY $074E
1A5C   B9 25 9A   LDA $9A25,Y
1A5F   48         PHA
1A60   20 BB 9B   JSR $9BBB
1A63   68         PLA
1A64   A6 07      LDX $07
1A66   4C 7D 9B   JMP $9B7D
1A69   20 BB 9B   JSR $9BBB
1A6C   A6 07      LDX $07
1A6E   A9 64      LDA #$64
1A70   9D A1 06   STA $06A1,X
1A73   E8         INX
1A74   88         DEY
1A75   30 0E      BMI $1A85
1A77   A9 65      LDA #$65
1A79   9D A1 06   STA $06A1,X
1A7C   E8         INX
1A7D   88         DEY
1A7E   30 05      BMI $1A85
1A80   A9 66      LDA #$66
1A82   20 7D 9B   JSR $9B7D
1A85   AE 6A 04   LDX $046A
1A88   20 D3 9B   JSR $9BD3
1A8B   9D 77 04   STA $0477,X
1A8E   AD 25 07   LDA $0725
1A91   9D 6B 04   STA $046B,X
1A94   20 CB 9B   JSR $9BCB
1A97   9D 71 04   STA $0471,X
1A9A   E8         INX
1A9B   E0 06      CPX #$06
1A9D   90 02      BCC $1AA1
1A9F   A2 00      LDX #$00
1AA1   8E 6A 04   STX $046A
1AA4   60         RTS
1AA5   07         ???
1AA6   07         ???
1AA7   06 05      ASL $05
1AA9   04         ???
1AAA   03         ???
1AAB   02         ???
1AAC   01 00      ORA ($00,X)
1AAE   03         ???
1AAF   03         ???
1AB0   04         ???
1AB1   05 06      ORA $06
1AB3   07         ???
1AB4   08         PHP
1AB5   09 0A      ORA #$0A
1AB7   20 AC 9B   JSR $9BAC
1ABA   90 05      BCC $1AC1
1ABC   A9 09      LDA #$09
1ABE   8D 34 07   STA $0734
1AC1   CE 34 07   DEC $0734
1AC4   AC 34 07   LDY $0734
1AC7   BE AE 9A   LDX $9AAE,Y
1ACA   B9 A5 9A   LDA $9AA5,Y
1ACD   A8         TAY
1ACE   A9 61      LDA #$61
1AD0   4C 7D 9B   JMP $9B7D
1AD3   20 BB 9B   JSR $9BBB
1AD6   20 4A 99   JSR $994A
1AD9   20 CB 9B   JSR $9BCB
1ADC   95 87      STA $87,X
1ADE   AD 25 07   LDA $0725
1AE1   95 6E      STA $6E,X
1AE3   20 D3 9B   JSR $9BD3
1AE6   95 CF      STA $CF,X
1AE8   95 58      STA $58,X
1AEA   A9 32      LDA #$32
1AEC   95 16      STA $16,X
1AEE   A0 01      LDY #$01
1AF0   94 B6      STY $B6,X
1AF2   F6 0F      INC $0F,X
1AF4   A6 07      LDX $07
1AF6   A9 67      LDA #$67
1AF8   9D A1 06   STA $06A1,X
1AFB   A9 68      LDA #$68
1AFD   9D A2 06   STA $06A2,X
1B00   60         RTS
1B01   AD 5D 07   LDA $075D
1B04   F0 36      BEQ $1B3C
1B06   A9 00      LDA #$00
1B08   8D 5D 07   STA $075D
1B0B   4C 19 9B   JMP $9B19
1B0E   20 36 9B   JSR $9B36
1B11   4C 2C 9B   JMP $9B2C
1B14   A9 00      LDA #$00
1B16   8D BC 06   STA $06BC
1B19   20 36 9B   JSR $9B36
1B1C   84 07      STY $07
1B1E   A9 00      LDA #$00
1B20   AC 4E 07   LDY $074E
1B23   88         DEY
1B24   F0 02      BEQ $1B28
1B26   A9 05      LDA #$05
1B28   18         CLC
1B29   65 07      ADC $07
1B2B   A8         TAY
1B2C   B9 E8 BD   LDA $BDE8,Y
1B2F   48         PHA
1B30   20 BB 9B   JSR $9BBB
1B33   4C 48 9A   JMP $9A48
1B36   A5 00      LDA $00
1B38   38         SEC
1B39   E9 00      SBC #$00
1B3B   A8         TAY
1B3C   60         RTS
1B3D   87         ???
1B3E   00         BRK
1B3F   00         BRK
1B40   00         BRK
1B41   20 AC 9B   JSR $9BAC
1B44   90 2D      BCC $1B73
1B46   AD 4E 07   LDA $074E
1B49   D0 28      BNE $1B73
1B4B   AE 6A 04   LDX $046A
1B4E   20 CB 9B   JSR $9BCB
1B51   38         SEC
1B52   E9 10      SBC #$10
1B54   9D 71 04   STA $0471,X
1B57   AD 25 07   LDA $0725
1B5A   E9 00      SBC #$00
1B5C   9D 6B 04   STA $046B,X
1B5F   C8         INY
1B60   C8         INY
1B61   98         TYA
1B62   0A         ASL A
1B63   0A         ASL A
1B64   0A         ASL A
1B65   0A         ASL A
1B66   9D 77 04   STA $0477,X
1B69   E8         INX
1B6A   E0 05      CPX #$05
1B6C   90 02      BCC $1B70
1B6E   A2 00      LDX #$00
1B70   8E 6A 04   STX $046A
1B73   AE 4E 07   LDX $074E
1B76   BD 3D 9B   LDA $9B3D,X
1B79   A2 08      LDX #$08
1B7B   A0 0F      LDY #$0F
1B7D   8C 35 07   STY $0735
1B80   BC A1 06   LDY $06A1,X
1B83   F0 18      BEQ $1B9D
1B85   C0 17      CPY #$17
1B87   F0 17      BEQ $1BA0
1B89   C0 1A      CPY #$1A
1B8B   F0 13      BEQ $1BA0
1B8D   C0 C0      CPY #$C0
1B8F   F0 0C      BEQ $1B9D
1B91   C0 C0      CPY #$C0
1B93   B0 0B      BCS $1BA0
1B95   C0 54      CPY #$54
1B97   D0 04      BNE $1B9D
1B99   C9 50      CMP #$50
1B9B   F0 03      BEQ $1BA0
1B9D   9D A1 06   STA $06A1,X
1BA0   E8         INX
1BA1   E0 0D      CPX #$0D
1BA3   B0 06      BCS $1BAB
1BA5   AC 35 07   LDY $0735
1BA8   88         DEY
1BA9   10 D2      BPL $1B7D
1BAB   60         RTS
1BAC   20 BB 9B   JSR $9BBB
1BAF   BD 30 07   LDA $0730,X
1BB2   18         CLC
1BB3   10 05      BPL $1BBA
1BB5   98         TYA
1BB6   9D 30 07   STA $0730,X
1BB9   38         SEC
1BBA   60         RTS
1BBB   BC 2D 07   LDY $072D,X
1BBE   B1 E7      LDA ($E7),Y
1BC0   29 0F      AND #$0F
1BC2   85 07      STA $07
1BC4   C8         INY
1BC5   B1 E7      LDA ($E7),Y
1BC7   29 0F      AND #$0F
1BC9   A8         TAY
1BCA   60         RTS
1BCB   AD 26 07   LDA $0726
1BCE   0A         ASL A
1BCF   0A         ASL A
1BD0   0A         ASL A
1BD1   0A         ASL A
1BD2   60         RTS
1BD3   A5 07      LDA $07
1BD5   0A         ASL A
1BD6   0A         ASL A
1BD7   0A         ASL A
1BD8   0A         ASL A
1BD9   18         CLC
1BDA   69 20      ADC #$20
1BDC   60         RTS
1BDD   00         BRK
1BDE   D0 05      BNE $1BE5
1BE0   05 48      ORA $48
1BE2   4A         LSR A
1BE3   4A         LSR A
1BE4   4A         LSR A
1BE5   4A         LSR A
1BE6   A8         TAY
1BE7   B9 DF 9B   LDA $9BDF,Y
1BEA   85 07      STA $07
1BEC   68         PLA
1BED   29 0F      AND #$0F
1BEF   18         CLC
1BF0   79 DD 9B   ADC $9BDD,Y
1BF3   85 06      STA $06
1BF5   60         RTS
1BF6   FF         ???
1BF7   FF         ???
1BF8   12         ???
1BF9   36 0E      ROL $0E,X
1BFB   0E 0E 32   ASL $320E
1BFE   32         ???
1BFF   32         ???
1C00   0A         ASL A
1C01   26 40      ROL $40
1C03   20 13 9C   JSR $9C13
1C06   8D 50 07   STA $0750
1C09   29 60      AND #$60
1C0B   0A         ASL A
1C0C   2A         ROL A
1C0D   2A         ROL A
1C0E   2A         ROL A
1C0F   8D 4E 07   STA $074E
1C12   60         RTS
1C13   AC 5F 07   LDY $075F
1C16   B9 B4 9C   LDA $9CB4,Y
1C19   18         CLC
1C1A   6D 60 07   ADC $0760
1C1D   A8         TAY
1C1E   B9 BC 9C   LDA $9CBC,Y
1C21   60         RTS
1C22   AD 50 07   LDA $0750
1C25   20 09 9C   JSR $9C09
1C28   A8         TAY
1C29   AD 50 07   LDA $0750
1C2C   29 1F      AND #$1F
1C2E   8D 4F 07   STA $074F
1C31   B9 E0 9C   LDA $9CE0,Y
1C34   18         CLC
1C35   6D 4F 07   ADC $074F
1C38   A8         TAY
1C39   B9 E4 9C   LDA $9CE4,Y
1C3C   85 E9      STA $E9
1C3E   B9 06 9D   LDA $9D06,Y
1C41   85 EA      STA $EA
1C43   AC 4E 07   LDY $074E
1C46   B9 28 9D   LDA $9D28,Y
1C49   18         CLC
1C4A   6D 4F 07   ADC $074F
1C4D   A8         TAY
1C4E   B9 2C 9D   LDA $9D2C,Y
1C51   85 E7      STA $E7
1C53   B9 4E 9D   LDA $9D4E,Y
1C56   85 E8      STA $E8
1C58   A0 00      LDY #$00
1C5A   B1 E7      LDA ($E7),Y
1C5C   48         PHA
1C5D   29 07      AND #$07
1C5F   C9 04      CMP #$04
1C61   90 05      BCC $1C68
1C63   8D 44 07   STA $0744
1C66   A9 00      LDA #$00
1C68   8D 41 07   STA $0741
1C6B   68         PLA
1C6C   48         PHA
1C6D   29 38      AND #$38
1C6F   4A         LSR A
1C70   4A         LSR A
1C71   4A         LSR A
1C72   8D 10 07   STA $0710
1C75   68         PLA
1C76   29 C0      AND #$C0
1C78   18         CLC
1C79   2A         ROL A
1C7A   2A         ROL A
1C7B   2A         ROL A
1C7C   8D 15 07   STA $0715
1C7F   C8         INY
1C80   B1 E7      LDA ($E7),Y
1C82   48         PHA
1C83   29 0F      AND #$0F
1C85   8D 27 07   STA $0727
1C88   68         PLA
1C89   48         PHA
1C8A   29 30      AND #$30
1C8C   4A         LSR A
1C8D   4A         LSR A
1C8E   4A         LSR A
1C8F   4A         LSR A
1C90   8D 42 07   STA $0742
1C93   68         PLA
1C94   29 C0      AND #$C0
1C96   18         CLC
1C97   2A         ROL A
1C98   2A         ROL A
1C99   2A         ROL A
1C9A   C9 03      CMP #$03
1C9C   D0 05      BNE $1CA3
1C9E   8D 43 07   STA $0743
1CA1   A9 00      LDA #$00
1CA3   8D 33 07   STA $0733
1CA6   A5 E7      LDA $E7
1CA8   18         CLC
1CA9   69 02      ADC #$02
1CAB   85 E7      STA $E7
1CAD   A5 E8      LDA $E8
1CAF   69 00      ADC #$00
1CB1   85 E8      STA $E8
1CB3   60         RTS
1CB4   00         BRK
1CB5   05 0A      ORA $0A
1CB7   0E 13 17   ASL $1713
1CBA   1B         ???
1CBB   20 25 29   JSR $2925
1CBE   C0 26      CPY #$26
1CC0   60         RTS
1CC1   28         PLP
1CC2   29 01      AND #$01
1CC4   27         ???
1CC5   62         ???
1CC6   24 35      BIT $35
1CC8   20 63 22   JSR $2263
1CCB   29 41      AND #$41
1CCD   2C 61 2A   BIT $2A61
1CD0   31 26      AND ($26),Y
1CD2   62         ???
1CD3   2E 23 2D   ROL $2D23
1CD6   60         RTS
1CD7   33         ???
1CD8   29 01      AND #$01
1CDA   27         ???
1CDB   64         ???
1CDC   30 32      BMI $1D10
1CDE   21 65      AND ($65,X)
1CE0   1F         ???
1CE1   06 1C      ASL $1C
1CE3   00         BRK
1CE4   70 97      BVS $1C7D
1CE6   B0 DF      BCS $1CC7
1CE8   0A         ASL A
1CE9   1F         ???
1CEA   59 7E 9B   EOR $9B7E,Y
1CED   A9 D0      LDA #$D0
1CEF   01 1F      ORA ($1F,X)
1CF1   3C         ???
1CF2   51 7B      EOR ($7B),Y
1CF4   7C         ???
1CF5   A0 A9      LDY #$A9
1CF7   CE F1 FA   DEC $FAF1
1CFA   FB         ???
1CFB   35 60      AND $60,X
1CFD   8E AA B3   STX $B3AA
1D00   D8         CLD
1D01   05 33      ORA $33
1D03   60         RTS
1D04   71 9B      ADC ($9B),Y
1D06   9D 9D 9D   STA $9D9D,X
1D09   9D 9E 9E   STA $9E9E,X
1D0C   9E         ???
1D0D   9E         ???
1D0E   9E         ???
1D0F   9E         ???
1D10   9E         ???
1D11   9F         ???
1D12   9F         ???
1D13   9F         ???
1D14   9F         ???
1D15   9F         ???
1D16   9F         ???
1D17   9F         ???
1D18   9F         ???
1D19   9F         ???
1D1A   9F         ???
1D1B   9F         ???
1D1C   9F         ???
1D1D   A0 A0      LDY #$A0
1D1F   A0 A0      LDY #$A0
1D21   A0 A0      LDY #$A0
1D23   A1 A1      LDA ($A1,X)
1D25   A1 A1      LDA ($A1,X)
1D27   A1 00      LDA ($00,X)
1D29   03         ???
1D2A   19 1C 06   ORA $061C,Y
1D2D   45 C0      EOR $C0
1D2F   6B         ???
1D30   CE 37 8A   DEC $8A37
1D33   19 8E F3   ORA $F38E,Y
1D36   48         PHA
1D37   CD 32 3B   CMP $3B32
1D3A   7A         ???
1D3B   8F         ???
1D3C   F6 5B      INC $5B,X
1D3E   CE FF 92   DEC $92FF
1D41   05 7E      ORA $7E
1D43   D7         ???
1D44   02         ???
1D45   35 D8      AND $D8,X
1D47   79 AF 10   ADC $10AF,Y
1D4A   8F         ???
1D4B   02         ???
1D4C   6F         ???
1D4D   FA         ???
1D4E   AE AE AE   LDX $AEAE
1D51   A4 A4      LDY $A4
1D53   A5 A5      LDA $A5
1D55   A6 A6      LDX $A6
1D57   A6 A7      LDX $A7
1D59   A7         ???
1D5A   A8         TAY
1D5B   A8         TAY
1D5C   A8         TAY
1D5D   A8         TAY
1D5E   A8         TAY
1D5F   A9 A9      LDA #$A9
1D61   A9 AA      LDA #$AA
1D63   AB         ???
1D64   AB         ???
1D65   AB         ???
1D66   AC AC AC   LDY $ACAC
1D69   AD A1 A2   LDA $A2A1
1D6C   A2 A3      LDX #$A3
1D6E   A3         ???
1D6F   A3         ???
1D70   76 DD      ROR $DD,X
1D72   BB         ???
1D73   4C EA 1D   JMP $1DEA
1D76   1B         ???
1D77   CC 56 5D   CPY $5D56
1D7A   16 9D      ASL $9D,X
1D7C   C6 1D      DEC $1D
1D7E   36 9D      ROL $9D,X
1D80   C9 1D      CMP #$1D
1D82   04         ???
1D83   DB         ???
1D84   49 1D      EOR #$1D
1D86   84 1B      STY $1B
1D88   C9 5D      CMP #$5D
1D8A   88         DEY
1D8B   95 0F      STA $0F,X
1D8D   08         PHP
1D8E   30 4C      BMI $1DDC
1D90   78         SEI
1D91   2D A6 28   AND $28A6
1D94   90 B5      BCC $1D4B
1D96   FF         ???
1D97   0F         ???
1D98   03         ???
1D99   56 1B      LSR $1B,X
1D9B   C9 1B      CMP #$1B
1D9D   0F         ???
1D9E   07         ???
1D9F   36 1B      ROL $1B,X
1DA1   AA         TAX
1DA2   1B         ???
1DA3   48         PHA
1DA4   95 0F      STA $0F,X
1DA6   0A         ASL A
1DA7   2A         ROL A
1DA8   1B         ???
1DA9   5B         ???
1DAA   0C         ???
1DAB   78         SEI
1DAC   2D 90 B5   AND $B590
1DAF   FF         ???
1DB0   0B         ???
1DB1   8C 4B 4C   STY $4C4B
1DB4   77         ???
1DB5   5F         ???
1DB6   EB         ???
1DB7   0C         ???
1DB8   BD DB 19   LDA $19DB,X
1DBB   9D 75 1D   STA $1D75,X
1DBE   7D 5B D9   ADC $D95B,X
1DC1   1D 3D DD   ORA $DD3D,X
1DC4   99 1D 26   STA $261D,Y
1DC7   9D 5A 2B   STA $2B5A,X
1DCA   8A         TXA
1DCB   2C CA 1B   BIT $1BCA
1DCE   20 95 7B   JSR $7B95
1DD1   5C         ???
1DD2   DB         ???
1DD3   4C 1B CC   JMP $CC1B
1DD6   3B         ???
1DD7   CC 78 2D   CPY $2D78
1DDA   A6 28      LDX $28
1DDC   90 B5      BCC $1D93
1DDE   FF         ???
1DDF   0B         ???
1DE0   8C 3B 1D   STY $1D3B
1DE3   8B         ???
1DE4   1D AB 0C   ORA $0CAB,X
1DE7   DB         ???
1DE8   1D 0F 03   ORA $030F,X
1DEB   65 1D      ADC $1D
1DED   6B         ???
1DEE   1B         ???
1DEF   05 9D      ORA $9D
1DF1   0B         ???
1DF2   1B         ???
1DF3   05 9B      ORA $9B
1DF5   0B         ???
1DF6   1D 8B 0C   ORA $0C8B,X
1DF9   1B         ???
1DFA   8C 70 15   STY $1570
1DFD   7B         ???
1DFE   0C         ???
1DFF   DB         ???
1E00   0C         ???
1E01   0F         ???
1E02   08         PHP
1E03   78         SEI
1E04   2D A6 28   AND $28A6
1E07   90 B5      BCC $1DBE
1E09   FF         ???
1E0A   27         ???
1E0B   A9 4B      LDA #$4B
1E0D   0C         ???
1E0E   68         PLA
1E0F   29 0F      AND #$0F
1E11   06 77      ASL $77
1E13   1B         ???
1E14   0F         ???
1E15   0B         ???
1E16   60         RTS
1E17   15 4B      ORA $4B,X
1E19   8C 78 2D   STY $2D78
1E1C   90 B5      BCC $1DD3
1E1E   FF         ???
1E1F   0F         ???
1E20   03         ???
1E21   8E 65 E1   STX $E165
1E24   BB         ???
1E25   38         SEC
1E26   6D A8 3E   ADC $3EA8
1E29   E5 E7      SBC $E7
1E2B   0F         ???
1E2C   08         PHP
1E2D   0B         ???
1E2E   02         ???
1E2F   2B         ???
1E30   02         ???
1E31   5E 65 E1   LSR $E165,X
1E34   BB         ???
1E35   0E DB 0E   ASL $0EDB
1E38   BB         ???
1E39   8E DB 0E   STX $0EDB
1E3C   FE 65 EC   INC $EC65,X
1E3F   0F         ???
1E40   0D 4E 65   ORA $654E
1E43   E1 0F      SBC ($0F,X)
1E45   0E 4E 02   ASL $024E
1E48   E0 0F      CPX #$0F
1E4A   10 FE      BPL $1E4A
1E4C   E5 E1      SBC $E1
1E4E   1B         ???
1E4F   85 7B      STA $7B
1E51   0C         ???
1E52   5B         ???
1E53   95 78      STA $78,X
1E55   2D 90 B5   AND $B590
1E58   FF         ???
1E59   A5 86      LDA $86
1E5B   E4 28      CPX $28
1E5D   18         CLC
1E5E   A8         TAY
1E5F   45 83      EOR $83
1E61   69 03      ADC #$03
1E63   C6 29      DEC $29
1E65   9B         ???
1E66   83         ???
1E67   16 A4      ASL $A4,X
1E69   88         DEY
1E6A   24 E9      BIT $E9
1E6C   28         PLP
1E6D   05 A8      ORA $A8
1E6F   7B         ???
1E70   28         PLP
1E71   24 8F      BIT $8F
1E73   C8         INY
1E74   03         ???
1E75   E8         INX
1E76   03         ???
1E77   46 A8      LSR $A8
1E79   85 24      STA $24
1E7B   C8         INY
1E7C   24 FF      BIT $FF
1E7E   EB         ???
1E7F   8E 0F 03   STX $030F
1E82   FB         ???
1E83   05 17      ORA $17
1E85   85 DB      STA $DB
1E87   8E 0F 07   STX $070F
1E8A   57         ???
1E8B   05 7B      ORA $7B
1E8D   05 9B      ORA $9B
1E8F   80         ???
1E90   2B         ???
1E91   85 FB      STA $FB
1E93   05 0F      ORA $0F
1E95   0B         ???
1E96   1B         ???
1E97   05 9B      ORA $9B
1E99   05 FF      ORA $FF
1E9B   2E C2 66   ROL $66C2
1E9E   E2         ???
1E9F   11 0F      ORA ($0F),Y
1EA1   07         ???
1EA2   02         ???
1EA3   11 0F      ORA ($0F),Y
1EA5   0C         ???
1EA6   12         ???
1EA7   11 FF      ORA ($FF),Y
1EA9   0E C2 A8   ASL $A8C2
1EAC   AB         ???
1EAD   00         BRK
1EAE   BB         ???
1EAF   8E 6B 82   STX $826B
1EB2   DE 00 A0   DEC $A000,X
1EB5   33         ???
1EB6   86 43      STX $43
1EB8   06 3E      ASL $3E
1EBA   B4 A0      LDY $A0,X
1EBC   CB         ???
1EBD   02         ???
1EBE   0F         ???
1EBF   07         ???
1EC0   7E 42 A6   ROR $A642,X
1EC3   83         ???
1EC4   02         ???
1EC5   0F         ???
1EC6   0A         ASL A
1EC7   3B         ???
1EC8   02         ???
1EC9   CB         ???
1ECA   37         ???
1ECB   0F         ???
1ECC   0C         ???
1ECD   E3         ???
1ECE   0E FF 9B   ASL $9BFF
1ED1   8E CA 0E   STX $0ECA
1ED4   EE 42 44   INC $4442
1ED7   5B         ???
1ED8   86 80      STX $80
1EDA   B8         CLV
1EDB   1B         ???
1EDC   80         ???
1EDD   50 BA      BVC $1E99
1EDF   10 B7      BPL $1E98
1EE1   5B         ???
1EE2   00         BRK
1EE3   17         ???
1EE4   85 4B      STA $4B
1EE6   05 FE      ORA $FE
1EE8   34         ???
1EE9   40         RTI
1EEA   B7         ???
1EEB   86 C6      STX $C6
1EED   06 5B      ASL $5B
1EEF   80         ???
1EF0   83         ???
1EF1   00         BRK
1EF2   D0 38      BNE $1F2C
1EF4   5B         ???
1EF5   8E 8A 0E   STX $0E8A
1EF8   A6 00      LDX $00
1EFA   BB         ???
1EFB   0E C5 80   ASL $80C5
1EFE   F3         ???
1EFF   00         BRK
1F00   FF         ???
1F01   1E C2 00   ASL $00C2,X
1F04   6B         ???
1F05   06 8B      ASL $8B
1F07   86 63      STX $63
1F09   B7         ???
1F0A   0F         ???
1F0B   05 03      ORA $03
1F0D   06 23      ASL $23
1F0F   06 4B      ASL $4B
1F11   B7         ???
1F12   BB         ???
1F13   00         BRK
1F14   5B         ???
1F15   B7         ???
1F16   FB         ???
1F17   37         ???
1F18   3B         ???
1F19   B7         ???
1F1A   0F         ???
1F1B   0B         ???
1F1C   1B         ???
1F1D   37         ???
1F1E   FF         ???
1F1F   2B         ???
1F20   D7         ???
1F21   E3         ???
1F22   03         ???
1F23   C2         ???
1F24   86 E2      STX $E2
1F26   06 76      ASL $76
1F28   A5 A3      LDA $A3
1F2A   8F         ???
1F2B   03         ???
1F2C   86 2B      STX $2B
1F2E   57         ???
1F2F   68         PLA
1F30   28         PLP
1F31   E9 28      SBC #$28
1F33   E5 83      SBC $83
1F35   24 8F      BIT $8F
1F37   36 A8      ROL $A8,X
1F39   5B         ???
1F3A   03         ???
1F3B   FF         ???
1F3C   0F         ???
1F3D   02         ???
1F3E   78         SEI
1F3F   40         RTI
1F40   48         PHA
1F41   CE F8 C3   DEC $C3F8
1F44   F8         SED
1F45   C3         ???
1F46   0F         ???
1F47   07         ???
1F48   7B         ???
1F49   43         ???
1F4A   C6 D0      DEC $D0
1F4C   0F         ???
1F4D   8A         TXA
1F4E   C8         INY
1F4F   50 FF      BVC $1F50
1F51   85 86      STA $86
1F53   0B         ???
1F54   80         ???
1F55   1B         ???
1F56   00         BRK
1F57   DB         ???
1F58   37         ???
1F59   77         ???
1F5A   80         ???
1F5B   EB         ???
1F5C   37         ???
1F5D   FE 2B 20   INC $202B,X
1F60   2B         ???
1F61   80         ???
1F62   7B         ???
1F63   38         SEC
1F64   AB         ???
1F65   B8         CLV
1F66   77         ???
1F67   86 FE      STX $FE
1F69   42         ???
1F6A   20 49 86   JSR $8649
1F6D   8B         ???
1F6E   06 9B      ASL $9B
1F70   80         ???
1F71   7B         ???
1F72   8E 5B B7   STX $B75B
1F75   9B         ???
1F76   0E BB 0E   ASL $0EBB
1F79   9B         ???
1F7A   80         ???
1F7B   FF         ???
1F7C   0B         ???
1F7D   80         ???
1F7E   60         RTS
1F7F   38         SEC
1F80   10 B8      BPL $1F3A
1F82   C0 3B      CPY #$3B
1F84   DB         ???
1F85   8E 40 B8   STX $B840
1F88   F0 38      BEQ $1FC2
1F8A   7B         ???
1F8B   8E A0 B8   STX $B8A0
1F8E   C0 B8      CPY #$B8
1F90   FB         ???
1F91   00         BRK
1F92   A0 B8      LDY #$B8
1F94   30 BB      BMI $1F51
1F96   EE 42 88   INC $8842
1F99   0F         ???
1F9A   0B         ???
1F9B   2B         ???
1F9C   0E 67 0E   ASL $0E67
1F9F   FF         ???
1FA0   0A         ASL A
1FA1   AA         TAX
1FA2   0E 28 2A   ASL $2A28
1FA5   0E 31 88   ASL $8831
1FA8   FF         ???
1FA9   C7         ???
1FAA   83         ???
1FAB   D7         ???
1FAC   03         ???
1FAD   42         ???
1FAE   8F         ???
1FAF   7A         ???
1FB0   03         ???
1FB1   05 A4      ORA $A4
1FB3   78         SEI
1FB4   24 A6      BIT $A6
1FB6   25 E4      AND $E4
1FB8   25 4B      AND $4B
1FBA   83         ???
1FBB   E3         ???
1FBC   03         ???
1FBD   05 A4      ORA $A4
1FBF   89         ???
1FC0   24 B5      BIT $B5
1FC2   24 09      BIT $09
1FC4   A4 65      LDY $65
1FC6   24 C9      BIT $C9
1FC8   24 0F      BIT $0F
1FCA   08         PHP
1FCB   85 25      STA $25
1FCD   FF         ???
1FCE   CD A5 B5   CMP $B5A5
1FD1   A8         TAY
1FD2   07         ???
1FD3   A8         TAY
1FD4   76 28      ROR $28,X
1FD6   CC 25 65   CPY $6525
1FD9   A4 A9      LDY $A9
1FDB   24 E5      BIT $E5
1FDD   24 19      BIT $19
1FDF   A4 0F      LDY $0F
1FE1   07         ???
1FE2   95 28      STA $28,X
1FE4   E6 24      INC $24
1FE6   19 A4 D7   ORA $D7A4,Y
1FE9   29 16      AND #$16
1FEB   A9 58      LDA #$58
1FED   29 97      AND #$97
1FEF   29 FF      AND #$FF
1FF1   0F         ???
1FF2   02         ???
1FF3   02         ???
1FF4   11 0F      ORA ($0F),Y
1FF6   07         ???
1FF7   02         ???
1FF8   11 FF      ORA ($FF),Y
1FFA   FF         ???
1FFB   2B         ???
1FFC   82         ???
1FFD   AB         ???
1FFE   38         SEC
1FFF   DE 42 E2   DEC $E242,X
2002   1B         ???
2003   B8         CLV
2004   EB         ???
2005   3B         ???
2006   DB         ???
2007   80         ???
2008   8B         ???
2009   B8         CLV
200A   1B         ???
200B   82         ???
200C   FB         ???
200D   B8         CLV
200E   7B         ???
200F   80         ???
2010   FB         ???
2011   3C         ???
2012   5B         ???
2013   BC 7B B8   LDY $B87B,X
2016   1B         ???
2017   8E CB 0E   STX $0ECB
201A   1B         ???
201B   8E 0F 0D   STX $0D0F
201E   2B         ???
201F   3B         ???
2020   BB         ???
2021   B8         CLV
2022   EB         ???
2023   82         ???
2024   4B         ???
2025   B8         CLV
2026   BB         ???
2027   38         SEC
2028   3B         ???
2029   B7         ???
202A   BB         ???
202B   02         ???
202C   0F         ???
202D   13         ???
202E   1B         ???
202F   00         BRK
2030   CB         ???
2031   80         ???
2032   6B         ???
2033   BC FF 7B   LDY $7BFF,X
2036   80         ???
2037   AE 00 80   LDX $8000
203A   8B         ???
203B   8E E8 05   STX $05E8
203E   F9 86 17   SBC $1786,Y
2041   86 16      STX $16
2043   85 4E      STA $4E
2045   2B         ???
2046   80         ???
2047   AB         ???
2048   8E 87 85   STX $8587
204B   C3         ???
204C   05 8B      ORA $8B
204E   82         ???
204F   9B         ???
2050   02         ???
2051   AB         ???
2052   02         ???
2053   BB         ???
2054   86 CB      STX $CB
2056   06 D3      ASL $D3
2058   03         ???
2059   3B         ???
205A   8E 6B 0E   STX $0E6B
205D   A7         ???
205E   8E FF 29   STX $29FF
2061   8E 52 11   STX $1152
2064   83         ???
2065   0E 0F 03   ASL $030F
2068   9B         ???
2069   0E 2B 8E   ASL $8E2B
206C   5B         ???
206D   0E CB 8E   ASL $8ECB
2070   FB         ???
2071   0E FB 82   ASL $82FB
2074   9B         ???
2075   82         ???
2076   BB         ???
2077   02         ???
2078   FE 42 E8   INC $E842,X
207B   BB         ???
207C   8E 0F 0A   STX $0A0F
207F   AB         ???
2080   0E CB 0E   ASL $0ECB
2083   F9 0E 88   SBC $880E,Y
2086   86 A6      STX $A6
2088   06 DB      ASL $DB
208A   02         ???
208B   B6 8E      LDX $8E,Y
208D   FF         ???
208E   AB         ???
208F   CE DE 42   DEC $42DE
2092   C0 CB      CPY #$CB
2094   CE 5B 8E   DEC $8E5B
2097   1B         ???
2098   CE 4B 85   DEC $854B
209B   67         ???
209C   45 0F      EOR $0F
209E   07         ???
209F   2B         ???
20A0   00         BRK
20A1   7B         ???
20A2   85 97      STA $97
20A4   05 0F      ORA $0F
20A6   0A         ASL A
20A7   92         ???
20A8   02         ???
20A9   FF         ???
20AA   0A         ASL A
20AB   AA         TAX
20AC   0E 24 4A   ASL $4A24
20AF   1E 23 AA   ASL $AA23,X
20B2   FF         ???
20B3   1B         ???
20B4   80         ???
20B5   BB         ???
20B6   38         SEC
20B7   4B         ???
20B8   BC EB 3B   LDY $3BEB,X
20BB   0F         ???
20BC   04         ???
20BD   2B         ???
20BE   00         BRK
20BF   AB         ???
20C0   38         SEC
20C1   EB         ???
20C2   00         BRK
20C3   CB         ???
20C4   8E FB 80   STX $80FB
20C7   AB         ???
20C8   B8         CLV
20C9   6B         ???
20CA   80         ???
20CB   FB         ???
20CC   3C         ???
20CD   9B         ???
20CE   BB         ???
20CF   5B         ???
20D0   BC FB 00   LDY $00FB,X
20D3   6B         ???
20D4   B8         CLV
20D5   FB         ???
20D6   38         SEC
20D7   FF         ???
20D8   0B         ???
20D9   86 1A      STX $1A
20DB   06 DB      ASL $DB
20DD   06 DE      ASL $DE
20DF   C2         ???
20E0   02         ???
20E1   F0 3B      BEQ $211E
20E3   BB         ???
20E4   80         ???
20E5   EB         ???
20E6   06 0B      ASL $0B
20E8   86 93      STX $93
20EA   06 F0      ASL $F0
20EC   39 0F 06   AND $060F,Y
20EF   60         RTS
20F0   B8         CLV
20F1   1B         ???
20F2   86 A0      STX $A0
20F4   B9 B7 27   LDA $27B7,Y
20F7   BD 27 2B   LDA $2B27,X
20FA   83         ???
20FB   A1 26      LDA ($26,X)
20FD   A9 26      LDA #$26
20FF   EE 25 0B   INC $0B25
2102   27         ???
2103   B4 FF      LDY $FF,X
2105   0F         ???
2106   02         ???
2107   1E 2F 60   ASL $602F,X
210A   E0 3A      CPX #$3A
210C   A5 A7      LDA $A7
210E   DB         ???
210F   80         ???
2110   3B         ???
2111   82         ???
2112   8B         ???
2113   02         ???
2114   FE 42 68   INC $6842,X
2117   70 BB      BVS $20D4
2119   25 A7      AND $A7
211B   2C 27 B2   BIT $B227
211E   26 B9      ROL $B9
2120   26 9B      ROL $9B
2122   80         ???
2123   A8         TAY
2124   82         ???
2125   B5 27      LDA $27,X
2127   BC 27 B0   LDY $B027,X
212A   BB         ???
212B   3B         ???
212C   82         ???
212D   87         ???
212E   34         ???
212F   EE 25 6B   INC $6B25
2132   FF         ???
2133   1E A5 0A   ASL $0AA5,X
2136   2E 28 27   ROL $2728
2139   2E 33 C7   ROL $C733
213C   0F         ???
213D   03         ???
213E   1E 40 07   ASL $0740,X
2141   2E 30 E7   ROL $E730
2144   0F         ???
2145   05 1E      ORA $1E
2147   24 44      BIT $44
2149   0F         ???
214A   07         ???
214B   1E 22 6A   ASL $6A22,X
214E   2E 23 AB   ROL $AB23
2151   0F         ???
2152   09 1E      ORA #$1E
2154   41 68      EOR ($68,X)
2156   1E 2A 8A   ASL $8A2A,X
2159   2E 23 A2   ROL $A223
215C   2E 32 EA   ROL $EA32
215F   FF         ???
2160   3B         ???
2161   87         ???
2162   66 27      ROR $27
2164   CC 27 EE   CPY $EE27
2167   31 87      AND ($87),Y
2169   EE 23 A7   INC $A723
216C   3B         ???
216D   87         ???
216E   DB         ???
216F   07         ???
2170   FF         ???
2171   0F         ???
2172   01 2E      ORA ($2E,X)
2174   25 2B      AND $2B
2176   2E 25 4B   ROL $4B25
2179   4E 25 CB   LSR $CB25
217C   6B         ???
217D   07         ???
217E   97         ???
217F   47         ???
2180   E9 87      SBC #$87
2182   47         ???
2183   C7         ???
2184   7A         ???
2185   07         ???
2186   D6 C7      DEC $C7,X
2188   78         SEI
2189   07         ???
218A   38         SEC
218B   87         ???
218C   AB         ???
218D   47         ???
218E   E3         ???
218F   07         ???
2190   9B         ???
2191   87         ???
2192   0F         ???
2193   09 68      ORA #$68
2195   47         ???
2196   DB         ???
2197   C7         ???
2198   3B         ???
2199   C7         ???
219A   FF         ???
219B   47         ???
219C   9B         ???
219D   CB         ???
219E   07         ???
219F   FA         ???
21A0   1D 86 9B   ORA $9B86,X
21A3   3A         ???
21A4   87         ???
21A5   56 07      LSR $07,X
21A7   88         DEY
21A8   1B         ???
21A9   07         ???
21AA   9D 2E 65   STA $652E,X
21AD   F0 FF      BEQ $21AE
21AF   9B         ???
21B0   07         ???
21B1   05 32      ORA $32
21B3   06 33      ASL $33
21B5   07         ???
21B6   34         ???
21B7   CE 03 DC   DEC $DC03
21BA   51 EE      EOR ($EE),Y
21BC   07         ???
21BD   73         ???
21BE   E0 74      CPX #$74
21C0   0A         ASL A
21C1   7E 06 9E   ROR $9E06,X
21C4   0A         ASL A
21C5   CE 06 E4   DEC $E406
21C8   00         BRK
21C9   E8         INX
21CA   0A         ASL A
21CB   FE 0A 2E   INC $2E0A,X
21CE   89         ???
21CF   4E 0B 54   LSR $540B
21D2   0A         ASL A
21D3   14         ???
21D4   8A         TXA
21D5   C4 0A      CPY $0A
21D7   34         ???
21D8   8A         TXA
21D9   7E 06 C7   ROR $C706,X
21DC   0A         ASL A
21DD   01 E0      ORA ($E0,X)
21DF   02         ???
21E0   0A         ASL A
21E1   47         ???
21E2   0A         ASL A
21E3   81 60      STA ($60,X)
21E5   82         ???
21E6   0A         ASL A
21E7   C7         ???
21E8   0A         ASL A
21E9   0E 87 7E   ASL $7E87
21EC   02         ???
21ED   A7         ???
21EE   02         ???
21EF   B3         ???
21F0   02         ???
21F1   D7         ???
21F2   02         ???
21F3   E3         ???
21F4   02         ???
21F5   07         ???
21F6   82         ???
21F7   13         ???
21F8   02         ???
21F9   3E 06 7E   ROL $7E06,X
21FC   02         ???
21FD   AE 07 FE   LDX $FE07
2200   0A         ASL A
2201   0D C4 CD   ORA $CDC4
2204   43         ???
2205   CE 09 DE   DEC $DE09
2208   0B         ???
2209   DD 42 FE   CMP $FE42,X
220C   02         ???
220D   5D C7 FD   EOR $FDC7,X
2210   5B         ???
2211   07         ???
2212   05 32      ORA $32
2214   06 33      ASL $33
2216   07         ???
2217   34         ???
2218   5E 0A 68   LSR $680A,X
221B   64         ???
221C   98         TYA
221D   64         ???
221E   A8         TAY
221F   64         ???
2220   CE 06 FE   DEC $FE06
2223   02         ???
2224   0D 01 1E   ORA $1E01
2227   0E 7E 02   ASL $027E
222A   94 63      STY $63,X
222C   B4 63      LDY $63,X
222E   D4         ???
222F   63         ???
2230   F4         ???
2231   63         ???
2232   14         ???
2233   E3         ???
2234   2E 0E 5E   ROL $5E0E
2237   02         ???
2238   64         ???
2239   35 88      AND $88,X
223B   72         ???
223C   BE 0E 0D   LDX $0D0E,Y
223F   04         ???
2240   AE 02 CE   LDX $CE02
2243   08         PHP
2244   CD 4B FE   CMP $FE4B
2247   02         ???
2248   0D 05 68   ORA $6805
224B   31 7E      AND ($7E),Y
224D   0A         ASL A
224E   96 31      STX $31,Y
2250   A9 63      LDA #$63
2252   A8         TAY
2253   33         ???
2254   D5 30      CMP $30,X
2256   EE 02 E6   INC $E602
2259   62         ???
225A   F4         ???
225B   61 04      ADC ($04,X)
225D   B1 08      LDA ($08),Y
225F   3F         ???
2260   44         ???
2261   33         ???
2262   94 63      STY $63,X
2264   A4 31      LDY $31
2266   E4 31      CPX $31
2268   04         ???
2269   BF         ???
226A   08         PHP
226B   3F         ???
226C   04         ???
226D   BF         ???
226E   08         PHP
226F   3F         ???
2270   CD 4B 03   CMP $034B
2273   E4 0E      CPX $0E
2275   03         ???
2276   2E 01 7E   ROL $7E01
2279   06 BE      ASL $BE
227B   02         ???
227C   DE 06 FE   DEC $FE06,X
227F   0A         ASL A
2280   0D C4 CD   ORA $CDC4
2283   43         ???
2284   CE 09 DE   DEC $DE09
2287   0B         ???
2288   DD 42 FE   CMP $FE42,X
228B   02         ???
228C   5D C7 FD   EOR $FDC7,X
228F   9B         ???
2290   07         ???
2291   05 32      ORA $32
2293   06 33      ASL $33
2295   07         ???
2296   34         ???
2297   FE 00 27   INC $2700,X
229A   B1 65      LDA ($65),Y
229C   32         ???
229D   75 0A      ADC $0A,X
229F   71 00      ADC ($00),Y
22A1   B7         ???
22A2   31 08      AND ($08),Y
22A4   E4 18      CPX $18
22A6   64         ???
22A7   1E 04 57   ASL $5704,X
22AA   3B         ???
22AB   BB         ???
22AC   0A         ASL A
22AD   17         ???
22AE   8A         TXA
22AF   27         ???
22B0   3A         ???
22B1   73         ???
22B2   0A         ASL A
22B3   7B         ???
22B4   0A         ASL A
22B5   D7         ???
22B6   0A         ASL A
22B7   E7         ???
22B8   3A         ???
22B9   3B         ???
22BA   8A         TXA
22BB   97         ???
22BC   0A         ASL A
22BD   FE 08 24   INC $2408,X
22C0   8A         TXA
22C1   2E 00 3E   ROL $3E00
22C4   40         RTI
22C5   38         SEC
22C6   64         ???
22C7   6F         ???
22C8   00         BRK
22C9   9F         ???
22CA   00         BRK
22CB   BE 43 C8   LDX $C843,Y
22CE   0A         ASL A
22CF   C9 63      CMP #$63
22D1   CE 07 FE   DEC $FE07
22D4   07         ???
22D5   2E 81 66   ROL $6681
22D8   42         ???
22D9   6A         ROR A
22DA   42         ???
22DB   79 0A BE   ADC $BE0A,Y
22DE   00         BRK
22DF   C8         INY
22E0   64         ???
22E1   F8         SED
22E2   64         ???
22E3   08         PHP
22E4   E4 2E      CPX $2E
22E6   07         ???
22E7   7E 03 9E   ROR $9E03,X
22EA   07         ???
22EB   BE 03 DE   LDX $DE03,Y
22EE   07         ???
22EF   FE 0A 03   INC $030A,X
22F2   A5 0D      LDA $0D
22F4   44         ???
22F5   CD 43 CE   CMP $CE43
22F8   09 DD      ORA #$DD
22FA   42         ???
22FB   DE 0B FE   DEC $FE0B,X
22FE   02         ???
22FF   5D C7 FD   EOR $FDC7,X
2302   9B         ???
2303   07         ???
2304   05 32      ORA $32
2306   06 33      ASL $33
2308   07         ???
2309   34         ???
230A   FE 06 0C   INC $0C06,X
230D   81 39      STA ($39,X)
230F   0A         ASL A
2310   5C         ???
2311   01 89      ORA ($89,X)
2313   0A         ASL A
2314   AC 01 D9   LDY $D901
2317   0A         ASL A
2318   FC         ???
2319   01 2E      ORA ($2E,X)
231B   83         ???
231C   A7         ???
231D   01 B7      ORA ($B7,X)
231F   00         BRK
2320   C7         ???
2321   01 DE      ORA ($DE,X)
2323   0A         ASL A
2324   FE 02 4E   INC $4E02,X
2327   83         ???
2328   5A         ???
2329   32         ???
232A   63         ???
232B   0A         ASL A
232C   69 0A      ADC #$0A
232E   7E 02 EE   ROR $EE02,X
2331   03         ???
2332   FA         ???
2333   32         ???
2334   03         ???
2335   8A         TXA
2336   09 0A      ORA #$0A
2338   1E 02 EE   ASL $EE02,X
233B   03         ???
233C   FA         ???
233D   32         ???
233E   03         ???
233F   8A         TXA
2340   09 0A      ORA #$0A
2342   14         ???
2343   42         ???
2344   1E 02 7E   ASL $7E02,X
2347   0A         ASL A
2348   9E         ???
2349   07         ???
234A   FE 0A 2E   INC $2E0A,X
234D   86 5E      STX $5E
234F   0A         ASL A
2350   8E 06 BE   STX $BE06
2353   0A         ASL A
2354   EE 07 3E   INC $3E07
2357   83         ???
2358   5E 07 FE   LSR $FE07,X
235B   0A         ASL A
235C   0D C4 41   ORA $41C4
235F   52         ???
2360   51 52      EOR ($52),Y
2362   CD 43 CE   CMP $CE43
2365   09 DE      ORA #$DE
2367   0B         ???
2368   DD 42 FE   CMP $FE42,X
236B   02         ???
236C   5D C7 FD   EOR $FDC7,X
236F   5B         ???
2370   07         ???
2371   05 32      ORA $32
2373   06 33      ASL $33
2375   07         ???
2376   34         ???
2377   FE 0A AE   INC $AE0A,X
237A   86 BE      STX $BE
237C   07         ???
237D   FE 02 0D   INC $0D02,X
2380   02         ???
2381   27         ???
2382   32         ???
2383   46 61      LSR $61
2385   55 62      EOR $62,X
2387   5E 0E 1E   LSR $1E0E,X
238A   82         ???
238B   68         PLA
238C   3C         ???
238D   74         ???
238E   3A         ???
238F   7D 4B 5E   ADC $5E4B,X
2392   8E 7D 4B   STX $4B7D
2395   7E 82 84   ROR $8482,X
2398   62         ???
2399   94 61      STY $61,X
239B   A4 31      LDY $31
239D   BD 4B CE   LDA $CE4B,X
23A0   06 FE      ASL $FE
23A2   02         ???
23A3   0D 06 34   ORA $3406
23A6   31 3E      AND ($3E),Y
23A8   0A         ASL A
23A9   64         ???
23AA   32         ???
23AB   75 0A      ADC $0A,X
23AD   7B         ???
23AE   61 A4      ADC ($A4,X)
23B0   33         ???
23B1   AE 02 DE   LDX $DE02
23B4   0E 3E 82   ASL $823E
23B7   64         ???
23B8   32         ???
23B9   78         SEI
23BA   32         ???
23BB   B4 36      LDY $36,X
23BD   C8         INY
23BE   36 DD      ROL $DD,X
23C0   4B         ???
23C1   44         ???
23C2   B2         ???
23C3   58         CLI
23C4   32         ???
23C5   94 63      STY $63,X
23C7   A4 3E      LDY $3E
23C9   BA         TSX
23CA   30 C9      BMI $2395
23CC   61 CE      ADC ($CE,X)
23CE   06 DD      ASL $DD
23D0   4B         ???
23D1   CE 86 DD   DEC $DD86
23D4   4B         ???
23D5   FE 02 2E   INC $2E02,X
23D8   86 5E      STX $5E
23DA   02         ???
23DB   7E 06 FE   ROR $FE06,X
23DE   02         ???
23DF   1E 86 3E   ASL $3E86,X
23E2   02         ???
23E3   5E 06 7E   LSR $7E06,X
23E6   02         ???
23E7   9E         ???
23E8   06 FE      ASL $FE
23EA   0A         ASL A
23EB   0D C4 CD   ORA $CDC4
23EE   43         ???
23EF   CE 09 DE   DEC $DE09
23F2   0B         ???
23F3   DD 42 FE   CMP $FE42,X
23F6   02         ???
23F7   5D C7 FD   EOR $FDC7,X
23FA   5B         ???
23FB   06 05      ASL $05
23FD   32         ???
23FE   06 33      ASL $33
2400   07         ???
2401   34         ???
2402   5E 0A AE   LSR $AE0A,X
2405   02         ???
2406   0D 01 39   ORA $3901
2409   73         ???
240A   0D 03 39   ORA $3903
240D   7B         ???
240E   4D 4B DE   EOR $DE4B
2411   06 1E      ASL $1E
2413   8A         TXA
2414   AE 06 C4   LDX $C406
2417   33         ???
2418   16 FE      ASL $FE,X
241A   A5 77      LDA $77
241C   FE 02 FE   INC $FE02,X
241F   82         ???
2420   0D 07 39   ORA $3907
2423   73         ???
2424   A8         TAY
2425   74         ???
2426   ED 4B 49   SBC $494B
2429   FB         ???
242A   E8         INX
242B   74         ???
242C   FE 0A 2E   INC $2E0A,X
242F   82         ???
2430   67         ???
2431   02         ???
2432   84 7A      STY $7A
2434   87         ???
2435   31 0D      AND ($0D),Y
2437   0B         ???
2438   FE 02 0D   INC $0D02,X
243B   0C         ???
243C   39 73 5E   AND $5E73,Y
243F   06 C6      ASL $C6
2441   76 45      ROR $45,X
2443   FF         ???
2444   BE 0A DD   LDX $DD0A,Y
2447   48         PHA
2448   FE 06 3D   INC $3D06,X
244B   CB         ???
244C   46 7E      LSR $7E
244E   AD 4A FE   LDA $FE4A
2451   82         ???
2452   39 F3 A9   AND $A9F3,Y
2455   7B         ???
2456   4E 8A 9E   LSR $9E8A
2459   07         ???
245A   FE 0A 0D   INC $0D0A,X
245D   C4 CD      CPY $CD
245F   43         ???
2460   CE 09 DE   DEC $DE09
2463   0B         ???
2464   DD 42 FE   CMP $FE42,X
2467   02         ???
2468   5D C7 FD   EOR $FDC7,X
246B   94 11      STY $11,X
246D   0F         ???
246E   26 FE      ROL $FE
2470   10 28      BPL $249A
2472   94 65      STY $65,X
2474   15 EB      ORA $EB,X
2476   12         ???
2477   FA         ???
2478   41 4A      EOR ($4A,X)
247A   96 54      STX $54,Y
247C   40         RTI
247D   A4 42      LDY $42
247F   B7         ???
2480   13         ???
2481   E9 19      SBC #$19
2483   F5 15      SBC $15,X
2485   11 80      ORA ($80),Y
2487   47         ???
2488   42         ???
2489   71 13      ADC ($13),Y
248B   80         ???
248C   41 15      EOR ($15,X)
248E   92         ???
248F   1B         ???
2490   1F         ???
2491   24 40      BIT $40
2493   55 12      EOR $12,X
2495   64         ???
2496   40         RTI
2497   95 12      STA $12,X
2499   A4 40      LDY $40
249B   D2         ???
249C   12         ???
249D   E1 40      SBC ($40,X)
249F   13         ???
24A0   C0 2C      CPY #$2C
24A2   17         ???
24A3   2F         ???
24A4   12         ???
24A5   49 13      EOR #$13
24A7   83         ???
24A8   40         RTI
24A9   9F         ???
24AA   14         ???
24AB   A3         ???
24AC   40         RTI
24AD   17         ???
24AE   92         ???
24AF   83         ???
24B0   13         ???
24B1   92         ???
24B2   41 B9      EOR ($B9,X)
24B4   14         ???
24B5   C5 12      CMP $12
24B7   C8         INY
24B8   40         RTI
24B9   D4         ???
24BA   40         RTI
24BB   4B         ???
24BC   92         ???
24BD   78         SEI
24BE   1B         ???
24BF   9C         ???
24C0   94 9F      STY $9F,X
24C2   11 DF      ORA ($DF),Y
24C4   14         ???
24C5   FE 11 7D   INC $7D11,X
24C8   C1 9E      CMP ($9E,X)
24CA   42         ???
24CB   CF         ???
24CC   20 FD 90   JSR $90FD
24CF   B1 0F      LDA ($0F),Y
24D1   26 29      ROL $29
24D3   91 7E      STA ($7E),Y
24D5   42         ???
24D6   FE 40 28   INC $2840,X
24D9   92         ???
24DA   4E 42 2E   LSR $2E42
24DD   C0 57      CPY #$57
24DF   73         ???
24E0   C3         ???
24E1   25 C7      AND $C7
24E3   27         ???
24E4   23         ???
24E5   84 33      STY $33
24E7   20 5C 01   JSR $015C
24EA   77         ???
24EB   63         ???
24EC   88         DEY
24ED   62         ???
24EE   99 61 AA   STA $AA61,Y
24F1   60         RTS
24F2   BC 01 EE   LDY $EE01,X
24F5   42         ???
24F6   4E C0 69   LSR $69C0
24F9   11 7E      ORA ($7E),Y
24FB   42         ???
24FC   DE 40 F8   DEC $F840,X
24FF   62         ???
2500   0E C2 AE   ASL $AEC2
2503   40         RTI
2504   D7         ???
2505   63         ???
2506   E7         ???
2507   63         ???
2508   33         ???
2509   A7         ???
250A   37         ???
250B   27         ???
250C   43         ???
250D   04         ???
250E   CC 01 E7   CPY $E701
2511   73         ???
2512   0C         ???
2513   81 3E      STA ($3E,X)
2515   42         ???
2516   0D 0A 5E   ORA $5E0A
2519   40         RTI
251A   88         DEY
251B   72         ???
251C   BE 42 E7   LDX $E742,Y
251F   87         ???
2520   FE 40 39   INC $3940,X
2523   E1 4E      SBC ($4E,X)
2525   00         BRK
2526   69 60      ADC #$60
2528   87         ???
2529   60         RTS
252A   A5 60      LDA $60
252C   C3         ???
252D   31 FE      AND ($FE),Y
252F   31 6D      AND ($6D),Y
2531   C1 BE      CMP ($BE,X)
2533   42         ???
2534   EF         ???
2535   20 FD 52   JSR $52FD
2538   21 0F      AND ($0F,X)
253A   20 6E 40   JSR $406E
253D   58         CLI
253E   F2         ???
253F   93         ???
2540   01 97      ORA ($97,X)
2542   00         BRK
2543   0C         ???
2544   81 97      STA ($97,X)
2546   40         RTI
2547   A6 41      LDX $41
2549   C7         ???
254A   40         RTI
254B   0D 04 03   ORA $0304
254E   01 07      ORA ($07,X)
2550   01 23      ORA ($23,X)
2552   01 27      ORA ($27,X)
2554   01 EC      ORA ($EC,X)
2556   03         ???
2557   AC F3 C3   LDY $C3F3
255A   03         ???
255B   78         SEI
255C   E2         ???
255D   94 43      STY $43,X
255F   47         ???
2560   F3         ???
2561   74         ???
2562   43         ???
2563   47         ???
2564   FB         ???
2565   74         ???
2566   43         ???
2567   2C F1 4C   BIT $4CF1
256A   63         ???
256B   47         ???
256C   00         BRK
256D   57         ???
256E   21 5C      AND ($5C,X)
2570   01 7C      ORA ($7C,X)
2572   72         ???
2573   39 F1 EC   AND $ECF1,Y
2576   02         ???
2577   4C 81 D8   JMP $D881
257A   62         ???
257B   EC 01 0D   CPX $0D01
257E   0D 0F 38   ORA $380F
2581   C7         ???
2582   07         ???
2583   ED 4A 1D   SBC $1D4A
2586   C1 5F      CMP ($5F,X)
2588   26 FD      ROL $FD
258A   54         ???
258B   21 0F      AND ($0F,X)
258D   26 A7      ROL $A7
258F   22         ???
2590   37         ???
2591   FB         ???
2592   73         ???
2593   20 83 07   JSR $0783
2596   87         ???
2597   02         ???
2598   93         ???
2599   20 C7 73   JSR $73C7
259C   04         ???
259D   F1 06      SBC ($06),Y
259F   31 39      AND ($39),Y
25A1   71 59      ADC ($59),Y
25A3   71 E7      ADC ($E7),Y
25A5   73         ???
25A6   37         ???
25A7   A0 47      LDY #$47
25A9   04         ???
25AA   86 7C      STX $7C
25AC   E5 71      SBC $71
25AE   E7         ???
25AF   31 33      AND ($33),Y
25B1   A4 39      LDY $39
25B3   71 A9      ADC ($A9),Y
25B5   71 D3      ADC ($D3),Y
25B7   23         ???
25B8   08         PHP
25B9   F2         ???
25BA   13         ???
25BB   05 27      ORA $27
25BD   02         ???
25BE   49 71      EOR #$71
25C0   75 75      ADC $75,X
25C2   E8         INX
25C3   72         ???
25C4   67         ???
25C5   F3         ???
25C6   99 71 E7   STA $E771,Y
25C9   20 F4 72   JSR $72F4
25CC   F7         ???
25CD   31 17      AND ($17),Y
25CF   A0 33      LDY #$33
25D1   20 39 71   JSR $7139
25D4   73         ???
25D5   28         PLP
25D6   BC 05 39   LDY $3905,X
25D9   F1 79      SBC ($79),Y
25DB   71 A6      ADC ($A6),Y
25DD   21 C3      AND ($C3,X)
25DF   06 D3      ASL $D3
25E1   20 DC 00   JSR $00DC
25E4   FC         ???
25E5   00         BRK
25E6   07         ???
25E7   A2 13      LDX #$13
25E9   21 5F      AND ($5F,X)
25EB   32         ???
25EC   8C 00 98   STY $9800
25EF   7A         ???
25F0   C7         ???
25F1   63         ???
25F2   D9 61 03   CMP $0361,Y
25F5   A2 07      LDX #$07
25F7   22         ???
25F8   74         ???
25F9   72         ???
25FA   77         ???
25FB   31 E7      AND ($E7),Y
25FD   73         ???
25FE   39 F1 58   AND $58F1,Y
2601   72         ???
2602   77         ???
2603   73         ???
2604   D8         CLD
2605   72         ???
2606   7F         ???
2607   B1 97      LDA ($97),Y
2609   73         ???
260A   B6 64      LDX $64,Y
260C   C5 65      CMP $65
260E   D4         ???
260F   66 E3      ROR $E3
2611   67         ???
2612   F3         ???
2613   67         ???
2614   8D C1 CF   STA $CFC1
2617   26 FD      ROL $FD
2619   52         ???
261A   31 0F      AND ($0F),Y
261C   20 6E 66   JSR $666E
261F   07         ???
2620   81 36      STA ($36,X)
2622   01 66      ORA ($66,X)
2624   00         BRK
2625   A7         ???
2626   22         ???
2627   08         PHP
2628   F2         ???
2629   67         ???
262A   7B         ???
262B   DC         ???
262C   02         ???
262D   98         TYA
262E   F2         ???
262F   D7         ???
2630   20 39 F1   JSR $F139
2633   9F         ???
2634   33         ???
2635   DC         ???
2636   27         ???
2637   DC         ???
2638   57         ???
2639   23         ???
263A   83         ???
263B   57         ???
263C   63         ???
263D   6C 51 87   JMP ($8751)
2640   63         ???
2641   99 61 A3   STA $A361,Y
2644   06 B3      ASL $B3
2646   21 77      AND ($77,X)
2648   F3         ???
2649   F3         ???
264A   21 F7      AND ($F7,X)
264C   2A         ROL A
264D   13         ???
264E   81 23      STA ($23,X)
2650   22         ???
2651   53         ???
2652   00         BRK
2653   63         ???
2654   22         ???
2655   E9 0B      SBC #$0B
2657   0C         ???
2658   83         ???
2659   13         ???
265A   21 16      AND ($16,X)
265C   22         ???
265D   33         ???
265E   05 8F      ORA $8F
2660   35 EC      AND $EC,X
2662   01 63      ORA ($63,X)
2664   A0 67      LDY #$67
2666   20 73 01   JSR $0173
2669   77         ???
266A   01 83      ORA ($83,X)
266C   20 87 20   JSR $2087
266F   B3         ???
2670   20 B7 20   JSR $20B7
2673   C3         ???
2674   01 C7      ORA ($C7,X)
2676   00         BRK
2677   D3         ???
2678   20 D7 20   JSR $20D7
267B   67         ???
267C   A0 77      LDY #$77
267E   07         ???
267F   87         ???
2680   22         ???
2681   E8         INX
2682   62         ???
2683   F5 65      SBC $65,X
2685   1C         ???
2686   82         ???
2687   7F         ???
2688   38         SEC
2689   8D C1 CF   STA $CFC1
268C   26 FD      ROL $FD
268E   50 21      BVC $26B1
2690   07         ???
2691   81 47      STA ($47,X)
2693   24 57      BIT $57
2695   00         BRK
2696   63         ???
2697   01 77      ORA ($77,X)
2699   01 C9      ORA ($C9,X)
269B   71 68      ADC ($68),Y
269D   F2         ???
269E   E7         ???
269F   73         ???
26A0   97         ???
26A1   FB         ???
26A2   06 83      ASL $83
26A4   5C         ???
26A5   01 D7      ORA ($D7,X)
26A7   22         ???
26A8   E7         ???
26A9   00         BRK
26AA   03         ???
26AB   A7         ???
26AC   6C 02 B3   JMP ($B302)
26AF   22         ???
26B0   E3         ???
26B1   01 E7      ORA ($E7,X)
26B3   07         ???
26B4   47         ???
26B5   A0 57      LDY #$57
26B7   06 A7      ASL $A7
26B9   01 D3      ORA ($D3,X)
26BB   00         BRK
26BC   D7         ???
26BD   01 07      ORA ($07,X)
26BF   81 67      STA ($67,X)
26C1   20 93 22   JSR $2293
26C4   03         ???
26C5   A3         ???
26C6   1C         ???
26C7   61 17      ADC ($17,X)
26C9   21 6F      AND ($6F,X)
26CB   33         ???
26CC   C7         ???
26CD   63         ???
26CE   D8         CLD
26CF   62         ???
26D0   E9 61      SBC #$61
26D2   FA         ???
26D3   60         RTS
26D4   4F         ???
26D5   B3         ???
26D6   87         ???
26D7   63         ???
26D8   9C         ???
26D9   01 B7      ORA ($B7,X)
26DB   63         ???
26DC   C8         INY
26DD   62         ???
26DE   D9 61 EA   CMP $EA61,Y
26E1   60         RTS
26E2   39 F1 87   AND $87F1,Y
26E5   21 A7      AND ($A7,X)
26E7   01 B7      ORA ($B7,X)
26E9   20 39 F1   JSR $F139
26EC   5F         ???
26ED   38         SEC
26EE   6D C1 AF   ADC $AFC1
26F1   26 FD      ROL $FD
26F3   90 11      BCC $2706
26F5   0F         ???
26F6   26 FE      ROL $FE
26F8   10 2A      BPL $2724
26FA   93         ???
26FB   87         ???
26FC   17         ???
26FD   A3         ???
26FE   14         ???
26FF   B2         ???
2700   42         ???
2701   0A         ASL A
2702   92         ???
2703   19 40 36   ORA $3640,Y
2706   14         ???
2707   50 41      BVC $274A
2709   82         ???
270A   16 2B      ASL $2B,X
270C   93         ???
270D   24 41      BIT $41
270F   BB         ???
2710   14         ???
2711   B8         CLV
2712   00         BRK
2713   C2         ???
2714   43         ???
2715   C3         ???
2716   13         ???
2717   1B         ???
2718   94 67      STY $67,X
271A   12         ???
271B   C4 15      CPY $15
271D   53         ???
271E   C1 D2      CMP ($D2,X)
2720   41 12      EOR ($12,X)
2722   C1 29      CMP ($29,X)
2724   13         ???
2725   85 17      STA $17
2727   1B         ???
2728   92         ???
2729   1A         ???
272A   42         ???
272B   47         ???
272C   13         ???
272D   83         ???
272E   41 A7      EOR ($A7,X)
2730   13         ???
2731   0E 91 A7   ASL $A791
2734   63         ???
2735   B7         ???
2736   63         ???
2737   C5 65      CMP $65
2739   D5 65      CMP $65,X
273B   DD 4A E3   CMP $E34A,X
273E   67         ???
273F   F3         ???
2740   67         ???
2741   8D C1 AE   STA $AEC1
2744   42         ???
2745   DF         ???
2746   20 FD 90   JSR $90FD
2749   11 0F      ORA ($0F),Y
274B   26 6E      ROL $6E
274D   10 8B      BPL $26DA
274F   17         ???
2750   AF         ???
2751   32         ???
2752   D8         CLD
2753   62         ???
2754   E8         INX
2755   62         ???
2756   FC         ???
2757   3F         ???
2758   AD C8 F8   LDA $F8C8
275B   64         ???
275C   0C         ???
275D   BE 43 43   LDX $4343,Y
2760   F8         SED
2761   64         ???
2762   0C         ???
2763   BF         ???
2764   73         ???
2765   40         RTI
2766   84 40      STY $40
2768   93         ???
2769   40         RTI
276A   A4 40      LDY $40
276C   B3         ???
276D   40         RTI
276E   F8         SED
276F   64         ???
2770   48         PHA
2771   E4 5C      CPX $5C
2773   39 83 40   AND $4083,Y
2776   92         ???
2777   41 B3      EOR ($B3,X)
2779   40         RTI
277A   F8         SED
277B   64         ???
277C   48         PHA
277D   E4 5C      CPX $5C
277F   39 F8 64   AND $64F8,Y
2782   13         ???
2783   C2         ???
2784   37         ???
2785   65 4C      ADC $4C
2787   24 63      BIT $63
2789   00         BRK
278A   97         ???
278B   65 C3      ADC $C3
278D   42         ???
278E   0B         ???
278F   97         ???
2790   AC 32 F8   LDY $F832
2793   64         ???
2794   0C         ???
2795   BE 53 45   LDX $4553,Y
2798   9D 48 F8   STA $F848,X
279B   64         ???
279C   2A         ROL A
279D   E2         ???
279E   3C         ???
279F   47         ???
27A0   56 43      LSR $43,X
27A2   BA         TSX
27A3   62         ???
27A4   F8         SED
27A5   64         ???
27A6   0C         ???
27A7   B7         ???
27A8   88         DEY
27A9   64         ???
27AA   BC 31 D4   LDY $D431,X
27AD   45 FC      EOR $FC
27AF   31 3C      AND ($3C),Y
27B1   B1 78      LDA ($78),Y
27B3   64         ???
27B4   8C 38 0B   STY $0B38
27B7   9C         ???
27B8   1A         ???
27B9   33         ???
27BA   18         CLC
27BB   61 28      ADC ($28,X)
27BD   61 39      ADC ($39,X)
27BF   60         RTS
27C0   5D 4A EE   EOR $EE4A,X
27C3   11 0F      ORA ($0F),Y
27C5   B8         CLV
27C6   1D C1 3E   ORA $3EC1,X
27C9   42         ???
27CA   6F         ???
27CB   20 FD 52   JSR $52FD
27CE   31 0F      AND ($0F),Y
27D0   20 6E 40   JSR $406E
27D3   F7         ???
27D4   20 07 84   JSR $8407
27D7   17         ???
27D8   20 4F 34   JSR $344F
27DB   C3         ???
27DC   03         ???
27DD   C7         ???
27DE   02         ???
27DF   D3         ???
27E0   22         ???
27E1   27         ???
27E2   E3         ???
27E3   39 61 E7   AND $E761,Y
27E6   73         ???
27E7   5C         ???
27E8   E4 57      CPX $57
27EA   00         BRK
27EB   6C 73 47   JMP ($4773)
27EE   A0 53      LDY #$53
27F0   06 63      ASL $63
27F2   22         ???
27F3   A7         ???
27F4   73         ???
27F5   FC         ???
27F6   73         ???
27F7   13         ???
27F8   A1 33      LDA ($33,X)
27FA   05 43      ORA $43
27FC   21 5C      AND ($5C,X)
27FE   72         ???
27FF   C3         ???
2800   23         ???
2801   CC 03 77   CPY $7703
2804   FB         ???
2805   AC 02 39   LDY $3902
2808   F1 A7      SBC ($A7),Y
280A   73         ???
280B   D3         ???
280C   04         ???
280D   E8         INX
280E   72         ???
280F   E3         ???
2810   22         ???
2811   26 F4      ROL $F4
2813   BC 02 8C   LDY $8C02,X
2816   81 A8      STA ($A8,X)
2818   62         ???
2819   17         ???
281A   87         ???
281B   43         ???
281C   24 A7      BIT $A7
281E   01 C3      ORA ($C3,X)
2820   04         ???
2821   08         PHP
2822   F2         ???
2823   97         ???
2824   21 A3      AND ($A3,X)
2826   02         ???
2827   C9 0B      CMP #$0B
2829   E1 69      SBC ($69,X)
282B   F1 69      SBC ($69),Y
282D   8D C1 CF   STA $CFC1
2830   26 FD      ROL $FD
2832   38         SEC
2833   11 0F      ORA ($0F),Y
2835   26 AD      ROL $AD
2837   40         RTI
2838   3D C7 FD   AND $FDC7,X
283B   95 B1      STA $B1,X
283D   0F         ???
283E   26 0D      ROL $0D
2840   02         ???
2841   C8         INY
2842   72         ???
2843   1C         ???
2844   81 38      STA ($38,X)
2846   72         ???
2847   0D 05 97   ORA $9705
284A   34         ???
284B   98         TYA
284C   62         ???
284D   A3         ???
284E   20 B3 06   JSR $06B3
2851   C3         ???
2852   20 CC 03   JSR $03CC
2855   F9 91 2C   SBC $2C91,Y
2858   81 48      STA ($48,X)
285A   62         ???
285B   0D 09 37   ORA $3709
285E   63         ???
285F   47         ???
2860   03         ???
2861   57         ???
2862   21 8C      AND ($8C,X)
2864   02         ???
2865   C5 79      CMP $79
2867   C7         ???
2868   31 F9      AND ($F9),Y
286A   11 39      ORA ($39),Y
286C   F1 A9      SBC ($A9),Y
286E   11 6F      ORA ($6F),Y
2870   B4 D3      LDY $D3,X
2872   65 E3      ADC $E3
2874   65 7D      ADC $7D
2876   C1 BF      CMP ($BF,X)
2878   26 FD      ROL $FD
287A   00         BRK
287B   C1 4C      CMP ($4C,X)
287D   00         BRK
287E   F4         ???
287F   4F         ???
2880   0D 02 02   ORA $0202
2883   42         ???
2884   43         ???
2885   4F         ???
2886   52         ???
2887   C2         ???
2888   DE 00 5A   DEC $5A00,X
288B   C2         ???
288C   4D C7 FD   EOR $FDC7
288F   90 51      BCC $28E2
2891   0F         ???
2892   26 EE      ROL $EE
2894   10 0B      BPL $28A1
2896   94 33      STY $33,X
2898   14         ???
2899   42         ???
289A   42         ???
289B   77         ???
289C   16 86      ASL $86,X
289E   44         ???
289F   02         ???
28A0   92         ???
28A1   4A         LSR A
28A2   16 69      ASL $69,X
28A4   42         ???
28A5   73         ???
28A6   14         ???
28A7   B0 00      BCS $28A9
28A9   C7         ???
28AA   12         ???
28AB   05 C0      ORA $C0
28AD   1C         ???
28AE   17         ???
28AF   1F         ???
28B0   11 36      ORA ($36),Y
28B2   12         ???
28B3   8F         ???
28B4   14         ???
28B5   91 40      STA ($40),Y
28B7   1B         ???
28B8   94 35      STY $35,X
28BA   12         ???
28BB   34         ???
28BC   42         ???
28BD   60         RTS
28BE   42         ???
28BF   61 12      ADC ($12,X)
28C1   87         ???
28C2   12         ???
28C3   96 40      STX $40,Y
28C5   A3         ???
28C6   14         ???
28C7   1C         ???
28C8   98         TYA
28C9   1F         ???
28CA   11 47      ORA ($47),Y
28CC   12         ???
28CD   9F         ???
28CE   15 CC      ORA $CC,X
28D0   15 CF      ORA $CF,X
28D2   11 05      ORA ($05),Y
28D4   C0 1F      CPY #$1F
28D6   15 39      ORA $39,X
28D8   12         ???
28D9   7C         ???
28DA   16 7F      ASL $7F,X
28DC   11 82      ORA ($82),Y
28DE   40         RTI
28DF   98         TYA
28E0   12         ???
28E1   DF         ???
28E2   15 16      ORA $16,X
28E4   C4 17      CPY $17
28E6   14         ???
28E7   54         ???
28E8   12         ???
28E9   9B         ???
28EA   16 28      ASL $28,X
28EC   94 CE      STY $CE,X
28EE   01 3D      ORA ($3D,X)
28F0   C1 5E      CMP ($5E,X)
28F2   42         ???
28F3   8F         ???
28F4   20 FD 97   JSR $97FD
28F7   11 0F      ORA ($0F),Y
28F9   26 FE      ROL $FE
28FB   10 2B      BPL $2928
28FD   92         ???
28FE   57         ???
28FF   12         ???
2900   8B         ???
2901   12         ???
2902   C0 41      CPY #$41
2904   F7         ???
2905   13         ???
2906   5B         ???
2907   92         ???
2908   69 0B      ADC #$0B
290A   BB         ???
290B   12         ???
290C   B2         ???
290D   46 19      LSR $19
290F   93         ???
2910   71 00      ADC ($00),Y
2912   17         ???
2913   94 7C      STY $7C,X
2915   14         ???
2916   7F         ???
2917   11 93      ORA ($93),Y
2919   41 BF      EOR ($BF,X)
291B   15 FC      ORA $FC,X
291D   13         ???
291E   FF         ???
291F   11 2F      ORA ($2F),Y
2921   95 50      STA $50,X
2923   42         ???
2924   51 12      EOR ($12),Y
2926   58         CLI
2927   14         ???
2928   A6 12      LDX $12
292A   DB         ???
292B   12         ???
292C   1B         ???
292D   93         ???
292E   46 43      LSR $43
2930   7B         ???
2931   12         ???
2932   8D 49 B7   STA $B749
2935   14         ???
2936   1B         ???
2937   94 49      STY $49,X
2939   0B         ???
293A   BB         ???
293B   12         ???
293C   FC         ???
293D   13         ???
293E   FF         ???
293F   12         ???
2940   03         ???
2941   C1 2F      CMP ($2F,X)
2943   15 43      ORA $43,X
2945   12         ???
2946   4B         ???
2947   13         ???
2948   77         ???
2949   13         ???
294A   9D 4A 15   STA $154A,X
294D   C1 A1      CMP ($A1,X)
294F   41 C3      EOR ($C3,X)
2951   12         ???
2952   FE 01 7D   INC $7D01,X
2955   C1 9E      CMP ($9E,X)
2957   42         ???
2958   CF         ???
2959   20 FD 52   JSR $52FD
295C   21 0F      AND ($0F,X)
295E   20 6E 44   JSR $446E
2961   0C         ???
2962   F1 4C      SBC ($4C),Y
2964   01 AA      ORA ($AA,X)
2966   35 D9      AND $D9,X
2968   34         ???
2969   EE 20 08   INC $0820
296C   B3         ???
296D   37         ???
296E   32         ???
296F   43         ???
2970   04         ???
2971   4E 21 53   LSR $5321
2974   20 7C 01   JSR $017C
2977   97         ???
2978   21 B7      AND ($B7,X)
297A   07         ???
297B   9C         ???
297C   81 E7      STA ($E7,X)
297E   42         ???
297F   5F         ???
2980   B3         ???
2981   97         ???
2982   63         ???
2983   AC 02 C5   LDY $C502
2986   41 49      EOR ($49,X)
2988   E0 58      CPX #$58
298A   61 76      ADC ($76,X)
298C   64         ???
298D   85 65      STA $65
298F   94 66      STY $66,X
2991   A4 22      LDY $22
2993   A6 03      LDX $03
2995   C8         INY
2996   22         ???
2997   DC         ???
2998   02         ???
2999   68         PLA
299A   F2         ???
299B   96 42      STX $42,Y
299D   13         ???
299E   82         ???
299F   17         ???
29A0   02         ???
29A1   AF         ???
29A2   34         ???
29A3   F6 21      INC $21,X
29A5   FC         ???
29A6   06 26      ASL $26
29A8   80         ???
29A9   2A         ROL A
29AA   24 36      BIT $36
29AC   01 8C      ORA ($8C,X)
29AE   00         BRK
29AF   FF         ???
29B0   35 4E      AND $4E,X
29B2   A0 55      LDY #$55
29B4   21 77      AND ($77,X)
29B6   20 87 07   JSR $0787
29B9   89         ???
29BA   22         ???
29BB   AE 21 4C   LDX $4C21
29BE   82         ???
29BF   9F         ???
29C0   34         ???
29C1   EC 01 03   CPX $0301
29C4   E7         ???
29C5   13         ???
29C6   67         ???
29C7   8D 4A AD   STA $AD4A
29CA   41 0F      EOR ($0F,X)
29CC   A6 FD      LDX $FD
29CE   10 51      BPL $2A21
29D0   4C 00 C7   JMP $C700
29D3   12         ???
29D4   C6 42      DEC $42
29D6   03         ???
29D7   92         ???
29D8   02         ???
29D9   42         ???
29DA   29 12      AND #$12
29DC   63         ???
29DD   12         ???
29DE   62         ???
29DF   42         ???
29E0   69 14      ADC #$14
29E2   A5 12      LDA $12
29E4   A4 42      LDY $42
29E6   E2         ???
29E7   14         ???
29E8   E1 44      SBC ($44,X)
29EA   F8         SED
29EB   16 37      ASL $37,X
29ED   C1 8F      CMP ($8F,X)
29EF   38         SEC
29F0   02         ???
29F1   BB         ???
29F2   28         PLP
29F3   7A         ???
29F4   68         PLA
29F5   7A         ???
29F6   A8         TAY
29F7   7A         ???
29F8   E0 6A      CPX #$6A
29FA   F0 6A      BEQ $2A66
29FC   6D C5 FD   ADC $FDC5
29FF   92         ???
2A00   31 0F      AND ($0F),Y
2A02   20 6E 40   JSR $406E
2A05   0D 02 37   ORA $3702
2A08   73         ???
2A09   EC 00 0C   CPX $0C00
2A0C   80         ???
2A0D   3C         ???
2A0E   00         BRK
2A0F   6C 00 9C   JMP ($9C00)
2A12   00         BRK
2A13   06 C0      ASL $C0
2A15   C7         ???
2A16   73         ???
2A17   06 83      ASL $83
2A19   28         PLP
2A1A   72         ???
2A1B   96 40      STX $40,Y
2A1D   E7         ???
2A1E   73         ???
2A1F   26 C0      ROL $C0
2A21   87         ???
2A22   7B         ???
2A23   D2         ???
2A24   41 39      EOR ($39,X)
2A26   F1 C8      SBC ($C8),Y
2A28   F2         ???
2A29   97         ???
2A2A   E3         ???
2A2B   A3         ???
2A2C   23         ???
2A2D   E7         ???
2A2E   02         ???
2A2F   E3         ???
2A30   07         ???
2A31   F3         ???
2A32   22         ???
2A33   37         ???
2A34   E3         ???
2A35   9C         ???
2A36   00         BRK
2A37   BC 00 EC   LDY $EC00,X
2A3A   00         BRK
2A3B   0C         ???
2A3C   80         ???
2A3D   3C         ???
2A3E   00         BRK
2A3F   86 21      STX $21
2A41   A6 06      LDX $06
2A43   B6 24      LDX $24,Y
2A45   5C         ???
2A46   80         ???
2A47   7C         ???
2A48   00         BRK
2A49   9C         ???
2A4A   00         BRK
2A4B   29 E1      AND #$E1
2A4D   DC         ???
2A4E   05 F6      ORA $F6
2A50   41 DC      EOR ($DC,X)
2A52   80         ???
2A53   E8         INX
2A54   72         ???
2A55   0C         ???
2A56   81 27      STA ($27,X)
2A58   73         ???
2A59   4C 01 66   JMP $6601
2A5C   74         ???
2A5D   0D 11 3F   ORA $3F11
2A60   35 B6      AND $B6,X
2A62   41 2C      EOR ($2C,X)
2A64   82         ???
2A65   36 40      ROL $40,X
2A67   7C         ???
2A68   02         ???
2A69   86 40      STX $40
2A6B   F9 61 39   SBC $3961,Y
2A6E   E1 AC      SBC ($AC,X)
2A70   04         ???
2A71   C6 41      DEC $41
2A73   0C         ???
2A74   83         ???
2A75   16 41      ASL $41,X
2A77   88         DEY
2A78   F2         ???
2A79   39 F1 7C   AND $7CF1,Y
2A7C   00         BRK
2A7D   89         ???
2A7E   61 9C      ADC ($9C,X)
2A80   00         BRK
2A81   A7         ???
2A82   63         ???
2A83   BC 00 C5   LDY $C500,X
2A86   65 DC      ADC $DC
2A88   00         BRK
2A89   E3         ???
2A8A   67         ???
2A8B   F3         ???
2A8C   67         ???
2A8D   8D C1 CF   STA $CFC1
2A90   26 FD      ROL $FD
2A92   55 B1      EOR $B1,X
2A94   0F         ???
2A95   26 CF      ROL $CF
2A97   33         ???
2A98   07         ???
2A99   B2         ???
2A9A   15 11      ORA $11,X
2A9C   52         ???
2A9D   42         ???
2A9E   99 0B AC   STA $AC0B,Y
2AA1   02         ???
2AA2   D3         ???
2AA3   24 D6      BIT $D6
2AA5   42         ???
2AA6   D7         ???
2AA7   25 23      AND $23
2AA9   84 CF      STY $CF
2AAB   33         ???
2AAC   07         ???
2AAD   E3         ???
2AAE   19 61 78   ORA $7861,Y
2AB1   7A         ???
2AB2   EF         ???
2AB3   33         ???
2AB4   2C 81 46   BIT $4681
2AB7   64         ???
2AB8   55 65      EOR $65,X
2ABA   65 65      ADC $65
2ABC   EC 74 47   CPX $4774
2ABF   82         ???
2AC0   53         ???
2AC1   05 63      ORA $63
2AC3   21 62      AND ($62,X)
2AC5   41 96      EOR ($96,X)
2AC7   22         ???
2AC8   9A         TXS
2AC9   41 CC      EOR ($CC,X)
2ACB   03         ???
2ACC   B9 91 39   LDA $3991,Y
2ACF   F1 63      SBC ($63),Y
2AD1   26 67      ROL $67
2AD3   27         ???
2AD4   D3         ???
2AD5   06 FC      ASL $FC
2AD7   01 18      ORA ($18,X)
2AD9   E2         ???
2ADA   D9 07 E9   CMP $E907,Y
2ADD   04         ???
2ADE   0C         ???
2ADF   86 37      STX $37
2AE1   22         ???
2AE2   93         ???
2AE3   24 87      BIT $87
2AE5   84 AC      STY $AC
2AE7   02         ???
2AE8   C2         ???
2AE9   41 C3      EOR ($C3,X)
2AEB   23         ???
2AEC   D9 71 FC   CMP $FC71,Y
2AEF   01 7F      ORA ($7F,X)
2AF1   B1 9C      LDA ($9C),Y
2AF3   00         BRK
2AF4   A7         ???
2AF5   63         ???
2AF6   B6 64      LDX $64,Y
2AF8   CC 00 D4   CPY $D400
2AFB   66 E3      ROR $E3
2AFD   67         ???
2AFE   F3         ???
2AFF   67         ???
2B00   8D C1 CF   STA $CFC1
2B03   26 FD      ROL $FD
2B05   50 B1      BVC $2AB8
2B07   0F         ???
2B08   26 FC      ROL $FC
2B0A   00         BRK
2B0B   1F         ???
2B0C   B3         ???
2B0D   5C         ???
2B0E   00         BRK
2B0F   65 65      ADC $65
2B11   74         ???
2B12   66 83      ROR $83
2B14   67         ???
2B15   93         ???
2B16   67         ???
2B17   DC         ???
2B18   73         ???
2B19   4C 80 B3   JMP $B380
2B1C   20 C9 0B   JSR $0BC9
2B1F   C3         ???
2B20   08         PHP
2B21   D3         ???
2B22   2F         ???
2B23   DC         ???
2B24   00         BRK
2B25   2C 80 4C   BIT $4C80
2B28   00         BRK
2B29   8C 00 D3   STY $D300
2B2C   2E ED 4A   ROL $4AED
2B2F   FC         ???
2B30   00         BRK
2B31   D7         ???
2B32   A1 EC      LDA ($EC,X)
2B34   01 4C      ORA ($4C,X)
2B36   80         ???
2B37   59 11 D8   EOR $D811,Y
2B3A   11 DA      ORA ($DA),Y
2B3C   10 37      BPL $2B75
2B3E   A0 47      LDY #$47
2B40   04         ???
2B41   99 11 E7   STA $E711,Y
2B44   21 3A      AND ($3A,X)
2B46   90 67      BCC $2BAF
2B48   20 76 10   JSR $1076
2B4B   77         ???
2B4C   60         RTS
2B4D   87         ???
2B4E   07         ???
2B4F   D8         CLD
2B50   12         ???
2B51   39 F1 AC   AND $ACF1,Y
2B54   00         BRK
2B55   E9 71      SBC #$71
2B57   0C         ???
2B58   80         ???
2B59   2C 00 4C   BIT $4C00
2B5C   05 C7      ORA $C7
2B5E   7B         ???
2B5F   39 F1 EC   AND $ECF1,Y
2B62   00         BRK
2B63   F9 11 0C   SBC $0C11,Y
2B66   82         ???
2B67   6F         ???
2B68   34         ???
2B69   F8         SED
2B6A   11 FA      ORA ($FA),Y
2B6C   10 7F      BPL $2BED
2B6E   B2         ???
2B6F   AC 00 B6   LDY $B600
2B72   64         ???
2B73   CC 01 E3   CPY $E301
2B76   67         ???
2B77   F3         ???
2B78   67         ???
2B79   8D C1 CF   STA $CFC1
2B7C   26 FD      ROL $FD
2B7E   52         ???
2B7F   B1 0F      LDA ($0F),Y
2B81   20 6E 45   JSR $456E
2B84   39 91 B3   AND $B391,Y
2B87   04         ???
2B88   C3         ???
2B89   21 C8      AND ($C8,X)
2B8B   11 CA      ORA ($CA),Y
2B8D   10 49      BPL $2BD8
2B8F   91 7C      STA ($7C),Y
2B91   73         ???
2B92   E8         INX
2B93   12         ???
2B94   88         DEY
2B95   91 8A      STA ($8A),Y
2B97   10 E7      BPL $2B80
2B99   21 05      AND ($05,X)
2B9B   91 07      STA ($07),Y
2B9D   30 17      BMI $2BB6
2B9F   07         ???
2BA0   27         ???
2BA1   20 49 11   JSR $1149
2BA4   9C         ???
2BA5   01 C8      ORA ($C8,X)
2BA7   72         ???
2BA8   23         ???
2BA9   A6 27      LDX $27
2BAB   26 D3      ROL $D3
2BAD   03         ???
2BAE   D8         CLD
2BAF   7A         ???
2BB0   89         ???
2BB1   91 D8      STA ($D8),Y
2BB3   72         ???
2BB4   39 F1 A9   AND $A9F1,Y
2BB7   11 09      ORA ($09),Y
2BB9   F1 63      SBC ($63),Y
2BBB   24 67      BIT $67
2BBD   24 D8      BIT $D8
2BBF   62         ???
2BC0   28         PLP
2BC1   91 2A      STA ($2A),Y
2BC3   10 56      BPL $2C1B
2BC5   21 70      AND ($70,X)
2BC7   04         ???
2BC8   79 0B 8C   ADC $8C0B,Y
2BCB   00         BRK
2BCC   94 21      STY $21,X
2BCE   9F         ???
2BCF   35 2F      AND $2F,X
2BD1   B8         CLV
2BD2   3D C1 7F   AND $7FC1,X
2BD5   26 FD      ROL $FD
2BD7   06 C1      ASL $C1
2BD9   4C 00 F4   JMP $F400
2BDC   4F         ???
2BDD   0D 02 06   ORA $0602
2BE0   20 24 4F   JSR $4F24
2BE3   35 A0      AND $A0,X
2BE5   36 20      ROL $20,X
2BE7   53         ???
2BE8   46 D5      LSR $D5
2BEA   20 D6 20   JSR $20D6
2BED   34         ???
2BEE   A1 73      LDA ($73,X)
2BF0   49 74      EOR #$74
2BF2   20 94 20   JSR $2094
2BF5   B4 20      LDY $20,X
2BF7   D4         ???
2BF8   20 F4 20   JSR $20F4
2BFB   2E 80 59   ROL $5980
2BFE   42         ???
2BFF   4D C7 FD   EOR $FDC7
2C02   96 31      STX $31,Y
2C04   0F         ???
2C05   26 0D      ROL $0D
2C07   03         ???
2C08   1A         ???
2C09   60         RTS
2C0A   77         ???
2C0B   42         ???
2C0C   C4 00      CPY $00
2C0E   C8         INY
2C0F   62         ???
2C10   B9 E1 D3   LDA $D3E1,Y
2C13   06 D7      ASL $D7
2C15   07         ???
2C16   F9 61 0C   SBC $0C61,Y
2C19   81 4E      STA ($4E,X)
2C1B   B1 8E      LDA ($8E),Y
2C1D   B1 BC      LDA ($BC),Y
2C1F   01 E4      ORA ($E4,X)
2C21   50 E9      BVC $2C0C
2C23   61 0C      ADC ($0C,X)
2C25   81 0D      STA ($0D,X)
2C27   0A         ASL A
2C28   84 43      STY $43
2C2A   98         TYA
2C2B   72         ???
2C2C   0D 0C 0F   ORA $0F0C
2C2F   38         SEC
2C30   1D C1 5F   ORA $5FC1,X
2C33   26 FD      ROL $FD
2C35   48         PHA
2C36   0F         ???
2C37   0E 01 5E   ASL $5E01
2C3A   02         ???
2C3B   A7         ???
2C3C   00         BRK
2C3D   BC 73 1A   LDY $1A73,X
2C40   E0 39      CPX #$39
2C42   61 58      ADC ($58,X)
2C44   62         ???
2C45   77         ???
2C46   63         ???
2C47   97         ???
2C48   63         ???
2C49   B8         CLV
2C4A   62         ???
2C4B   D6 07      DEC $07,X
2C4D   F8         SED
2C4E   62         ???
2C4F   19 E1 75   ORA $75E1,Y
2C52   52         ???
2C53   86 40      STX $40
2C55   87         ???
2C56   50 95      BVC $2BED
2C58   52         ???
2C59   93         ???
2C5A   43         ???
2C5B   A5 21      LDA $21
2C5D   C5 52      CMP $52
2C5F   D6 40      DEC $40,X
2C61   D7         ???
2C62   20 E5 06   JSR $06E5
2C65   E6 51      INC $51
2C67   3E 8D 5E   ROL $5E8D,X
2C6A   03         ???
2C6B   67         ???
2C6C   52         ???
2C6D   77         ???
2C6E   52         ???
2C6F   7E 02 9E   ROR $9E02,X
2C72   03         ???
2C73   A6 43      LDX $43
2C75   A7         ???
2C76   23         ???
2C77   DE 05 FE   DEC $FE05,X
2C7A   02         ???
2C7B   1E 83 33   ASL $3383,X
2C7E   54         ???
2C7F   46 40      LSR $40
2C81   47         ???
2C82   21 56      AND ($56,X)
2C84   04         ???
2C85   5E 02 83   LSR $8302,X
2C88   54         ???
2C89   93         ???
2C8A   52         ???
2C8B   96 07      STX $07,Y
2C8D   97         ???
2C8E   50 BE      BVC $2C4E
2C90   03         ???
2C91   C7         ???
2C92   23         ???
2C93   FE 02 0C   INC $0C02,X
2C96   82         ???
2C97   43         ???
2C98   45 45      EOR $45
2C9A   24 46      BIT $46
2C9C   24 90      BIT $90
2C9E   08         PHP
2C9F   95 51      STA $51,X
2CA1   78         SEI
2CA2   FA         ???
2CA3   D7         ???
2CA4   73         ???
2CA5   39 F1 8C   AND $8CF1,Y
2CA8   01 A8      ORA ($A8,X)
2CAA   52         ???
2CAB   B8         CLV
2CAC   52         ???
2CAD   CC 01 5F   CPY $5F01
2CB0   B3         ???
2CB1   97         ???
2CB2   63         ???
2CB3   9E         ???
2CB4   00         BRK
2CB5   0E 81 16   ASL $1681
2CB8   24 66      BIT $66
2CBA   04         ???
2CBB   8E 00 FE   STX $FE00
2CBE   01 08      ORA ($08,X)
2CC0   D2         ???
2CC1   0E 06 6F   ASL $6F06
2CC4   47         ???
2CC5   9E         ???
2CC6   0F         ???
2CC7   0E 82 2D   ASL $2D82
2CCA   47         ???
2CCB   28         PLP
2CCC   7A         ???
2CCD   68         PLA
2CCE   7A         ???
2CCF   A8         TAY
2CD0   7A         ???
2CD1   AE 01 DE   LDX $DE01
2CD4   0F         ???
2CD5   6D C5 FD   ADC $FDC5
2CD8   48         PHA
2CD9   0F         ???
2CDA   0E 01 5E   ASL $5E01
2CDD   02         ???
2CDE   BC 01 FC   LDY $FC01,X
2CE1   01 2C      ORA ($2C,X)
2CE3   82         ???
2CE4   41 52      EOR ($52,X)
2CE6   4E 04 67   LSR $6704
2CE9   25 68      AND $68
2CEB   24 69      BIT $69
2CED   24 BA      BIT $BA
2CEF   42         ???
2CF0   C7         ???
2CF1   04         ???
2CF2   DE 0B B2   DEC $B20B,X
2CF5   87         ???
2CF6   FE 02 2C   INC $2C02,X
2CF9   E1 2C      SBC ($2C,X)
2CFB   71 67      ADC ($67),Y
2CFD   01 77      ORA ($77,X)
2CFF   00         BRK
2D00   87         ???
2D01   01 8E      ORA ($8E,X)
2D03   00         BRK
2D04   EE 01 F6   INC $F601
2D07   02         ???
2D08   03         ???
2D09   85 05      STA $05
2D0B   02         ???
2D0C   13         ???
2D0D   21 16      AND ($16,X)
2D0F   02         ???
2D10   27         ???
2D11   02         ???
2D12   2E 02 88   ROL $8802
2D15   72         ???
2D16   C7         ???
2D17   20 D7 07   JSR $07D7
2D1A   E4 76      CPX $76
2D1C   07         ???
2D1D   A0 17      LDY #$17
2D1F   06 48      ASL $48
2D21   7A         ???
2D22   76 20      ROR $20,X
2D24   98         TYA
2D25   72         ???
2D26   79 E1 88   ADC $88E1,Y
2D29   62         ???
2D2A   9C         ???
2D2B   01 B7      ORA ($B7,X)
2D2D   73         ???
2D2E   DC         ???
2D2F   01 F8      ORA ($F8,X)
2D31   62         ???
2D32   FE 01 08   INC $0801,X
2D35   E2         ???
2D36   0E 00 6E   ASL $6E00
2D39   02         ???
2D3A   73         ???
2D3B   20 77 23   JSR $2377
2D3E   83         ???
2D3F   04         ???
2D40   93         ???
2D41   20 AE 00   JSR $00AE
2D44   FE 0A 0E   INC $0E0A,X
2D47   82         ???
2D48   39 71 A8   AND $A871,Y
2D4B   72         ???
2D4C   E7         ???
2D4D   73         ???
2D4E   0C         ???
2D4F   81 8F      STA ($8F,X)
2D51   32         ???
2D52   AE 00 FE   LDX $FE00
2D55   04         ???
2D56   04         ???
2D57   D1 17      CMP ($17),Y
2D59   04         ???
2D5A   26 49      ROL $49
2D5C   27         ???
2D5D   29 DF      AND #$DF
2D5F   33         ???
2D60   FE 02 44   INC $4402,X
2D63   F6 7C      INC $7C,X
2D65   01 8E      ORA ($8E,X)
2D67   06 BF      ASL $BF
2D69   47         ???
2D6A   EE 0F 4D   INC $4D0F
2D6D   C7         ???
2D6E   0E 82 68   ASL $6882
2D71   7A         ???
2D72   AE 01 DE   LDX $DE01
2D75   0F         ???
2D76   6D C5 FD   ADC $FDC5
2D79   48         PHA
2D7A   01 0E      ORA ($0E,X)
2D7C   01 00      ORA ($00,X)
2D7E   5A         ???
2D7F   3E 06 45   ROL $4506,X
2D82   46 47      LSR $47
2D84   46 53      LSR $53
2D86   44         ???
2D87   AE 01 DF   LDX $DF01
2D8A   4A         LSR A
2D8B   4D C7 0E   EOR $0EC7
2D8E   81 00      STA ($00,X)
2D90   5A         ???
2D91   2E 04 37   ROL $3704
2D94   28         PLP
2D95   3A         ???
2D96   48         PHA
2D97   46 47      LSR $47
2D99   C7         ???
2D9A   07         ???
2D9B   CE 0F DF   DEC $DF0F
2D9E   4A         LSR A
2D9F   4D C7 0E   EOR $0EC7
2DA2   81 00      STA ($00,X)
2DA4   5A         ???
2DA5   33         ???
2DA6   53         ???
2DA7   43         ???
2DA8   51 46      EOR ($46),Y
2DAA   40         RTI
2DAB   47         ???
2DAC   50 53      BVC $2E01
2DAE   04         ???
2DAF   55 40      EOR $40,X
2DB1   56 50      LSR $50,X
2DB3   62         ???
2DB4   43         ???
2DB5   64         ???
2DB6   40         RTI
2DB7   65 50      ADC $50
2DB9   71 41      ADC ($41),Y
2DBB   73         ???
2DBC   51 83      EOR ($83),Y
2DBE   51 94      EOR ($94),Y
2DC0   40         RTI
2DC1   95 50      STA $50,X
2DC3   A3         ???
2DC4   50 A5      BVC $2D6B
2DC6   40         RTI
2DC7   A6 50      LDX $50
2DC9   B3         ???
2DCA   51 B6      EOR ($B6),Y
2DCC   40         RTI
2DCD   B7         ???
2DCE   50 C3      BVC $2D93
2DD0   53         ???
2DD1   DF         ???
2DD2   4A         LSR A
2DD3   4D C7 0E   EOR $0EC7
2DD6   81 00      STA ($00,X)
2DD8   5A         ???
2DD9   2E 02 36   ROL $3602
2DDC   47         ???
2DDD   37         ???
2DDE   52         ???
2DDF   3A         ???
2DE0   49 47      EOR #$47
2DE2   25 A7      AND $A7
2DE4   52         ???
2DE5   D7         ???
2DE6   04         ???
2DE7   DF         ???
2DE8   4A         LSR A
2DE9   4D C7 0E   EOR $0EC7
2DEC   81 00      STA ($00,X)
2DEE   5A         ???
2DEF   3E 02 44   ROL $4402,X
2DF2   51 53      EOR ($53),Y
2DF4   44         ???
2DF5   54         ???
2DF6   44         ???
2DF7   55 24      EOR $24,X
2DF9   A1 54      LDA ($54,X)
2DFB   AE 01 B4   LDX $B401
2DFE   21 DF      AND ($DF,X)
2E00   4A         LSR A
2E01   E5 07      SBC $07
2E03   4D C7 FD   EOR $FDC7
2E06   41 01      EOR ($01,X)
2E08   B4 34      LDY $34,X
2E0A   C8         INY
2E0B   52         ???
2E0C   F2         ???
2E0D   51 47      EOR ($47),Y
2E0F   D3         ???
2E10   6C 03 65   JMP ($6503)
2E13   49 9E      EOR #$9E
2E15   07         ???
2E16   BE 01 CC   LDX $CC01,Y
2E19   03         ???
2E1A   FE 07 0D   INC $0D07,X
2E1D   C9 1E      CMP #$1E
2E1F   01 6C      ORA ($6C,X)
2E21   01 62      ORA ($62,X)
2E23   35 63      AND $63,X
2E25   53         ???
2E26   8A         TXA
2E27   41 AC      EOR ($AC,X)
2E29   01 B3      ORA ($B3,X)
2E2B   53         ???
2E2C   E9 51      SBC #$51
2E2E   26 C3      ROL $C3
2E30   27         ???
2E31   33         ???
2E32   63         ???
2E33   43         ???
2E34   64         ???
2E35   33         ???
2E36   BA         TSX
2E37   60         RTS
2E38   C9 61      CMP #$61
2E3A   CE 0B E5   DEC $E50B
2E3D   09 EE      ORA #$EE
2E3F   0F         ???
2E40   7D CA 7D   ADC $7DCA,X
2E43   47         ???
2E44   FD 41 01   SBC $0141,X
2E47   B8         CLV
2E48   52         ???
2E49   EA         NOP
2E4A   41 27      EOR ($27,X)
2E4C   B2         ???
2E4D   B3         ???
2E4E   42         ???
2E4F   16 D4      ASL $D4,X
2E51   4A         LSR A
2E52   42         ???
2E53   A5 51      LDA $51
2E55   A7         ???
2E56   31 27      AND ($27),Y
2E58   D3         ???
2E59   08         PHP
2E5A   E2         ???
2E5B   16 64      ASL $64,X
2E5D   2C 04 38   BIT $3804
2E60   42         ???
2E61   76 64      ROR $64,X
2E63   88         DEY
2E64   62         ???
2E65   DE 07 FE   DEC $FE07,X
2E68   01 0D      ORA ($0D,X)
2E6A   C9 23      CMP #$23
2E6C   32         ???
2E6D   31 51      AND ($51),Y
2E6F   98         TYA
2E70   52         ???
2E71   0D C9 59   ORA $59C9
2E74   42         ???
2E75   63         ???
2E76   53         ???
2E77   67         ???
2E78   31 14      AND ($14),Y
2E7A   C2         ???
2E7B   36 31      ROL $31,X
2E7D   87         ???
2E7E   53         ???
2E7F   17         ???
2E80   E3         ???
2E81   29 61      AND #$61
2E83   30 62      BMI $2EE7
2E85   3C         ???
2E86   08         PHP
2E87   42         ???
2E88   37         ???
2E89   59 40 6A   EOR $6A40,Y
2E8C   42         ???
2E8D   99 40 C9   STA $C940,Y
2E90   61 D7      ADC ($D7,X)
2E92   63         ???
2E93   39 D1 58   AND $58D1,Y
2E96   52         ???
2E97   C3         ???
2E98   67         ???
2E99   D3         ???
2E9A   31 DC      AND ($DC),Y
2E9C   06 F7      ASL $F7
2E9E   42         ???
2E9F   FA         ???
2EA0   42         ???
2EA1   23         ???
2EA2   B1 43      LDA ($43),Y
2EA4   67         ???
2EA5   C3         ???
2EA6   34         ???
2EA7   C7         ???
2EA8   34         ???
2EA9   D1 51      CMP ($51),Y
2EAB   43         ???
2EAC   B3         ???
2EAD   47         ???
2EAE   33         ???
2EAF   9A         TXS
2EB0   30 A9      BMI $2E5B
2EB2   61 B8      ADC ($B8,X)
2EB4   62         ???
2EB5   BE 0B D5   LDX $D50B,Y
2EB8   09 DE      ORA #$DE
2EBA   0F         ???
2EBB   0D CA 7D   ORA $7DCA
2EBE   47         ???
2EBF   FD 49 0F   SBC $0F49,X
2EC2   1E 01 39   ASL $3901,X
2EC5   73         ???
2EC6   5E 07 AE   LSR $AE07,X
2EC9   0B         ???
2ECA   1E 82 6E   ASL $6E82,X
2ECD   88         DEY
2ECE   9E         ???
2ECF   02         ???
2ED0   0D 04 2E   ORA $2E04
2ED3   0B         ???
2ED4   45 09      EOR $09
2ED6   4E 0F ED   LSR $ED0F
2ED9   47         ???
2EDA   FD FF AD   SBC $ADFF,X
2EDD   72         ???
2EDE   07         ???
2EDF   20 04 8E   JSR $8E04
2EE2   E4 8F      CPX $8F
2EE4   67         ???
2EE5   85 71      STA $71
2EE7   90 EA      BCC $2ED3
2EE9   AE AE 53   LDX $53AE
2EEC   07         ???
2EED   BD FC 06   LDA $06FC,X
2EF0   8D FC 06   STA $06FC
2EF3   20 4A B0   JSR $B04A
2EF6   AD 72 07   LDA $0772
2EF9   C9 03      CMP #$03
2EFB   B0 01      BCS $2EFE
2EFD   60         RTS
2EFE   20 24 B6   JSR $B624
2F01   A2 00      LDX #$00
2F03   86 08      STX $08
2F05   20 47 C0   JSR $C047
2F08   20 C3 84   JSR $84C3
2F0B   E8         INX
2F0C   E0 06      CPX #$06
2F0E   D0 F3      BNE $2F03
2F10   20 80 F1   JSR $F180
2F13   20 2A F1   JSR $F12A
2F16   20 E9 EE   JSR $EEE9
2F19   20 D4 BE   JSR $BED4
2F1C   A2 01      LDX #$01
2F1E   86 08      STX $08
2F20   20 70 BE   JSR $BE70
2F23   CA         DEX
2F24   86 08      STX $08
2F26   20 70 BE   JSR $BE70
2F29   20 96 BB   JSR $BB96
2F2C   20 BC B9   JSR $B9BC
2F2F   20 B8 B7   JSR $B7B8
2F32   20 55 B8   JSR $B855
2F35   20 4F B7   JSR $B74F
2F38   20 E1 89   JSR $89E1
2F3B   A5 B5      LDA $B5
2F3D   C9 02      CMP #$02
2F3F   10 11      BPL $2F52
2F41   AD 9F 07   LDA $079F
2F44   F0 1E      BEQ $2F64
2F46   C9 04      CMP #$04
2F48   D0 08      BNE $2F52
2F4A   AD 7F 07   LDA $077F
2F4D   D0 03      BNE $2F52
2F4F   20 ED 90   JSR $90ED
2F52   AC 9F 07   LDY $079F
2F55   A5 09      LDA $09
2F57   C0 08      CPY #$08
2F59   B0 02      BCS $2F5D
2F5B   4A         LSR A
2F5C   4A         LSR A
2F5D   4A         LSR A
2F5E   20 88 B2   JSR $B288
2F61   4C 67 AF   JMP $AF67
2F64   20 9A B2   JSR $B29A
2F67   A5 0A      LDA $0A
2F69   85 0D      STA $0D
2F6B   A9 00      LDA #$00
2F6D   85 0C      STA $0C
2F6F   AD 73 07   LDA $0773
2F72   C9 06      CMP #$06
2F74   F0 1C      BEQ $2F92
2F76   AD 1F 07   LDA $071F
2F79   D0 14      BNE $2F8F
2F7B   AD 3D 07   LDA $073D
2F7E   C9 20      CMP #$20
2F80   30 10      BMI $2F92
2F82   AD 3D 07   LDA $073D
2F85   E9 20      SBC #$20
2F87   8D 3D 07   STA $073D
2F8A   A9 00      LDA #$00
2F8C   8D 40 03   STA $0340
2F8F   20 B0 92   JSR $92B0
2F92   60         RTS
2F93   AD FF 06   LDA $06FF
2F96   18         CLC
2F97   6D A1 03   ADC $03A1
2F9A   8D FF 06   STA $06FF
2F9D   AD 23 07   LDA $0723
2FA0   D0 59      BNE $2FFB
2FA2   AD 55 07   LDA $0755
2FA5   C9 50      CMP #$50
2FA7   90 52      BCC $2FFB
2FA9   AD 85 07   LDA $0785
2FAC   D0 4D      BNE $2FFB
2FAE   AC FF 06   LDY $06FF
2FB1   88         DEY
2FB2   30 47      BMI $2FFB
2FB4   C8         INY
2FB5   C0 02      CPY #$02
2FB7   90 01      BCC $2FBA
2FB9   88         DEY
2FBA   AD 55 07   LDA $0755
2FBD   C9 70      CMP #$70
2FBF   90 03      BCC $2FC4
2FC1   AC FF 06   LDY $06FF
2FC4   98         TYA
2FC5   8D 75 07   STA $0775
2FC8   18         CLC
2FC9   6D 3D 07   ADC $073D
2FCC   8D 3D 07   STA $073D
2FCF   98         TYA
2FD0   18         CLC
2FD1   6D 1C 07   ADC $071C
2FD4   8D 1C 07   STA $071C
2FD7   8D 3F 07   STA $073F
2FDA   AD 1A 07   LDA $071A
2FDD   69 00      ADC #$00
2FDF   8D 1A 07   STA $071A
2FE2   29 01      AND #$01
2FE4   85 00      STA $00
2FE6   AD 78 07   LDA $0778
2FE9   29 FE      AND #$FE
2FEB   05 00      ORA $00
2FED   8D 78 07   STA $0778
2FF0   20 38 B0   JSR $B038
2FF3   A9 08      LDA #$08
2FF5   8D 95 07   STA $0795
2FF8   4C 00 B0   JMP $B000
2FFB   A9 00      LDA #$00
2FFD   8D 75 07   STA $0775
3000   A2 00      LDX #$00
3002   20 F6 F1   JSR $F1F6
3005   85 00      STA $00
3007   A0 00      LDY #$00
3009   0A         ASL A
300A   B0 07      BCS $3013
300C   C8         INY
300D   A5 00      LDA $00
300F   29 20      AND #$20
3011   F0 1B      BEQ $302E
3013   B9 1C 07   LDA $071C,Y
3016   38         SEC
3017   F9 34 B0   SBC $B034,Y
301A   85 86      STA $86
301C   B9 1A 07   LDA $071A,Y
301F   E9 00      SBC #$00
3021   85 6D      STA $6D
3023   A5 0C      LDA $0C
3025   D9 36 B0   CMP $B036,Y
3028   F0 04      BEQ $302E
302A   A9 00      LDA #$00
302C   85 57      STA $57
302E   A9 00      LDA #$00
3030   8D A1 03   STA $03A1
3033   60         RTS
3034   00         BRK
3035   10 01      BPL $3038
3037   02         ???
3038   AD 1C 07   LDA $071C
303B   18         CLC
303C   69 FF      ADC #$FF
303E   8D 1D 07   STA $071D
3041   AD 1A 07   LDA $071A
3044   69 00      ADC #$00
3046   8D 1B 07   STA $071B
3049   60         RTS
304A   A5 0E      LDA $0E
304C   20 04 8E   JSR $8E04
304F   31 91      AND ($91),Y
3051   C7         ???
3052   B1 06      LDA ($06),Y
3054   B2         ???
3055   E5 B1      SBC $B1
3057   A4 B2      LDY $B2
3059   CA         DEX
305A   B2         ???
305B   CD 91 69   CMP $6991
305E   B0 E9      BCS $3049
3060   B0 33      BCS $3095
3062   B2         ???
3063   45 B2      EOR $B2
3065   69 B2      ADC #$B2
3067   7D B2 AD   ADC $ADB2,X
306A   52         ???
306B   07         ???
306C   C9 02      CMP #$02
306E   F0 2B      BEQ $309B
3070   A9 00      LDA #$00
3072   A4 CE      LDY $CE
3074   C0 30      CPY #$30
3076   90 6E      BCC $30E6
3078   AD 10 07   LDA $0710
307B   C9 06      CMP #$06
307D   F0 04      BEQ $3083
307F   C9 07      CMP #$07
3081   D0 50      BNE $30D3
3083   AD C4 03   LDA $03C4
3086   D0 05      BNE $308D
3088   A9 01      LDA #$01
308A   4C E6 B0   JMP $B0E6
308D   20 1F B2   JSR $B21F
3090   CE DE 06   DEC $06DE
3093   D0 50      BNE $30E5
3095   EE 69 07   INC $0769
3098   4C 15 B3   JMP $B315
309B   AD 58 07   LDA $0758
309E   D0 0C      BNE $30AC
30A0   A9 FF      LDA #$FF
30A2   20 00 B2   JSR $B200
30A5   A5 CE      LDA $CE
30A7   C9 91      CMP #$91
30A9   90 28      BCC $30D3
30AB   60         RTS
30AC   AD 99 03   LDA $0399
30AF   C9 60      CMP #$60
30B1   D0 32      BNE $30E5
30B3   A5 CE      LDA $CE
30B5   C9 99      CMP #$99
30B7   A0 00      LDY #$00
30B9   A9 01      LDA #$01
30BB   90 0A      BCC $30C7
30BD   A9 03      LDA #$03
30BF   85 1D      STA $1D
30C1   C8         INY
30C2   A9 08      LDA #$08
30C4   8D B4 05   STA $05B4
30C7   8C 16 07   STY $0716
30CA   20 E6 B0   JSR $B0E6
30CD   A5 86      LDA $86
30CF   C9 48      CMP #$48
30D1   90 12      BCC $30E5
30D3   A9 08      LDA #$08
30D5   85 0E      STA $0E
30D7   A9 01      LDA #$01
30D9   85 33      STA $33
30DB   4A         LSR A
30DC   8D 52 07   STA $0752
30DF   8D 16 07   STA $0716
30E2   8D 58 07   STA $0758
30E5   60         RTS
30E6   8D FC 06   STA $06FC
30E9   A5 0E      LDA $0E
30EB   C9 0B      CMP #$0B
30ED   F0 3C      BEQ $312B
30EF   AD 4E 07   LDA $074E
30F2   D0 10      BNE $3104
30F4   A4 B5      LDY $B5
30F6   88         DEY
30F7   D0 06      BNE $30FF
30F9   A5 CE      LDA $CE
30FB   C9 D0      CMP #$D0
30FD   90 05      BCC $3104
30FF   A9 00      LDA #$00
3101   8D FC 06   STA $06FC
3104   AD FC 06   LDA $06FC
3107   29 C0      AND #$C0
3109   85 0A      STA $0A
310B   AD FC 06   LDA $06FC
310E   29 03      AND #$03
3110   85 0C      STA $0C
3112   AD FC 06   LDA $06FC
3115   29 0C      AND #$0C
3117   85 0B      STA $0B
3119   29 04      AND #$04
311B   F0 0E      BEQ $312B
311D   A5 1D      LDA $1D
311F   D0 0A      BNE $312B
3121   A4 0C      LDY $0C
3123   F0 06      BEQ $312B
3125   A9 00      LDA #$00
3127   85 0C      STA $0C
3129   85 0B      STA $0B
312B   20 29 B3   JSR $B329
312E   A0 01      LDY #$01
3130   AD 54 07   LDA $0754
3133   D0 09      BNE $313E
3135   A0 00      LDY #$00
3137   AD 14 07   LDA $0714
313A   F0 02      BEQ $313E
313C   A0 02      LDY #$02
313E   8C 99 04   STY $0499
3141   A9 01      LDA #$01
3143   A4 57      LDY $57
3145   F0 05      BEQ $314C
3147   10 01      BPL $314A
3149   0A         ASL A
314A   85 45      STA $45
314C   20 93 AF   JSR $AF93
314F   20 80 F1   JSR $F180
3152   20 2A F1   JSR $F12A
3155   A2 00      LDX #$00
3157   20 9C E2   JSR $E29C
315A   20 64 DC   JSR $DC64
315D   A5 CE      LDA $CE
315F   C9 40      CMP #$40
3161   90 16      BCC $3179
3163   A5 0E      LDA $0E
3165   C9 05      CMP #$05
3167   F0 10      BEQ $3179
3169   C9 07      CMP #$07
316B   F0 0C      BEQ $3179
316D   C9 04      CMP #$04
316F   90 08      BCC $3179
3171   AD C4 03   LDA $03C4
3174   29 DF      AND #$DF
3176   8D C4 03   STA $03C4
3179   A5 B5      LDA $B5
317B   C9 02      CMP #$02
317D   30 3B      BMI $31BA
317F   A2 01      LDX #$01
3181   8E 23 07   STX $0723
3184   A0 04      LDY #$04
3186   84 07      STY $07
3188   A2 00      LDX #$00
318A   AC 59 07   LDY $0759
318D   D0 05      BNE $3194
318F   AC 43 07   LDY $0743
3192   D0 16      BNE $31AA
3194   E8         INX
3195   A4 0E      LDY $0E
3197   C0 0B      CPY #$0B
3199   F0 0F      BEQ $31AA
319B   AC 12 07   LDY $0712
319E   D0 06      BNE $31A6
31A0   C8         INY
31A1   84 FC      STY $FC
31A3   8C 12 07   STY $0712
31A6   A0 06      LDY #$06
31A8   84 07      STY $07
31AA   C5 07      CMP $07
31AC   30 0C      BMI $31BA
31AE   CA         DEX
31AF   30 0A      BMI $31BB
31B1   AC B1 07   LDY $07B1
31B4   D0 04      BNE $31BA
31B6   A9 06      LDA #$06
31B8   85 0E      STA $0E
31BA   60         RTS
31BB   A9 00      LDA #$00
31BD   8D 58 07   STA $0758
31C0   20 DD B1   JSR $B1DD
31C3   EE 52 07   INC $0752
31C6   60         RTS
31C7   A5 B5      LDA $B5
31C9   D0 06      BNE $31D1
31CB   A5 CE      LDA $CE
31CD   C9 E4      CMP #$E4
31CF   90 0C      BCC $31DD
31D1   A9 08      LDA #$08
31D3   8D 58 07   STA $0758
31D6   A0 03      LDY #$03
31D8   84 1D      STY $1D
31DA   4C E6 B0   JMP $B0E6
31DD   A9 02      LDA #$02
31DF   8D 52 07   STA $0752
31E2   4C 13 B2   JMP $B213
31E5   A9 01      LDA #$01
31E7   20 00 B2   JSR $B200
31EA   20 93 AF   JSR $AF93
31ED   A0 00      LDY #$00
31EF   AD D6 06   LDA $06D6
31F2   D0 17      BNE $320B
31F4   C8         INY
31F5   AD 4E 07   LDA $074E
31F8   C9 03      CMP #$03
31FA   D0 0F      BNE $320B
31FC   C8         INY
31FD   4C 0B B2   JMP $B20B
3200   18         CLC
3201   65 CE      ADC $CE
3203   85 CE      STA $CE
3205   60         RTS
3206   20 1F B2   JSR $B21F
3209   A0 02      LDY #$02
320B   CE DE 06   DEC $06DE
320E   D0 0E      BNE $321E
3210   8C 52 07   STY $0752
3213   EE 74 07   INC $0774
3216   A9 00      LDA #$00
3218   8D 72 07   STA $0772
321B   8D 22 07   STA $0722
321E   60         RTS
321F   A9 08      LDA #$08
3221   85 57      STA $57
3223   A0 01      LDY #$01
3225   A5 86      LDA $86
3227   29 0F      AND #$0F
3229   D0 03      BNE $322E
322B   85 57      STA $57
322D   A8         TAY
322E   98         TYA
322F   20 E6 B0   JSR $B0E6
3232   60         RTS
3233   AD 47 07   LDA $0747
3236   C9 F8      CMP #$F8
3238   D0 03      BNE $323D
323A   4C 55 B2   JMP $B255
323D   C9 C4      CMP #$C4
323F   D0 03      BNE $3244
3241   20 73 B2   JSR $B273
3244   60         RTS
3245   AD 47 07   LDA $0747
3248   C9 F0      CMP #$F0
324A   B0 07      BCS $3253
324C   C9 C8      CMP #$C8
324E   F0 23      BEQ $3273
3250   4C E9 B0   JMP $B0E9
3253   D0 13      BNE $3268
3255   AC 0B 07   LDY $070B
3258   D0 0E      BNE $3268
325A   8C 0D 07   STY $070D
325D   EE 0B 07   INC $070B
3260   AD 54 07   LDA $0754
3263   49 01      EOR #$01
3265   8D 54 07   STA $0754
3268   60         RTS
3269   AD 47 07   LDA $0747
326C   C9 F0      CMP #$F0
326E   B0 33      BCS $32A3
3270   4C E9 B0   JMP $B0E9
3273   A9 00      LDA #$00
3275   8D 47 07   STA $0747
3278   A9 08      LDA #$08
327A   85 0E      STA $0E
327C   60         RTS
327D   AD 47 07   LDA $0747
3280   C9 C0      CMP #$C0
3282   F0 13      BEQ $3297
3284   A5 09      LDA $09
3286   4A         LSR A
3287   4A         LSR A
3288   29 03      AND #$03
328A   85 00      STA $00
328C   AD C4 03   LDA $03C4
328F   29 FC      AND #$FC
3291   05 00      ORA $00
3293   8D C4 03   STA $03C4
3296   60         RTS
3297   20 73 B2   JSR $B273
329A   AD C4 03   LDA $03C4
329D   29 FC      AND #$FC
329F   8D C4 03   STA $03C4
32A2   60         RTS
32A3   60         RTS
32A4   A5 1B      LDA $1B
32A6   C9 30      CMP #$30
32A8   D0 15      BNE $32BF
32AA   AD 13 07   LDA $0713
32AD   85 FF      STA $FF
32AF   A9 00      LDA #$00
32B1   8D 13 07   STA $0713
32B4   A4 CE      LDY $CE
32B6   C0 9E      CPY #$9E
32B8   B0 02      BCS $32BC
32BA   A9 04      LDA #$04
32BC   4C E6 B0   JMP $B0E6
32BF   E6 0E      INC $0E
32C1   60         RTS
32C2   15 23      ORA $23,X
32C4   16 1B      ASL $1B,X
32C6   17         ???
32C7   18         CLC
32C8   23         ???
32C9   63         ???
32CA   A9 01      LDA #$01
32CC   20 E6 B0   JSR $B0E6
32CF   A5 CE      LDA $CE
32D1   C9 AE      CMP #$AE
32D3   90 0E      BCC $32E3
32D5   AD 23 07   LDA $0723
32D8   F0 09      BEQ $32E3
32DA   A9 20      LDA #$20
32DC   85 FC      STA $FC
32DE   A9 00      LDA #$00
32E0   8D 23 07   STA $0723
32E3   AD 90 04   LDA $0490
32E6   4A         LSR A
32E7   B0 0D      BCS $32F6
32E9   AD 46 07   LDA $0746
32EC   D0 03      BNE $32F1
32EE   EE 46 07   INC $0746
32F1   A9 20      LDA #$20
32F3   8D C4 03   STA $03C4
32F6   AD 46 07   LDA $0746
32F9   C9 05      CMP #$05
32FB   D0 2B      BNE $3328
32FD   EE 5C 07   INC $075C
3300   AD 5C 07   LDA $075C
3303   C9 03      CMP #$03
3305   D0 0E      BNE $3315
3307   AC 5F 07   LDY $075F
330A   AD 48 07   LDA $0748
330D   D9 C2 B2   CMP $B2C2,Y
3310   90 03      BCC $3315
3312   EE 5D 07   INC $075D
3315   EE 60 07   INC $0760
3318   20 03 9C   JSR $9C03
331B   EE 57 07   INC $0757
331E   20 13 B2   JSR $B213
3321   8D 5B 07   STA $075B
3324   A9 80      LDA #$80
3326   85 FC      STA $FC
3328   60         RTS
3329   A9 00      LDA #$00
332B   AC 54 07   LDY $0754
332E   D0 08      BNE $3338
3330   A5 1D      LDA $1D
3332   D0 07      BNE $333B
3334   A5 0B      LDA $0B
3336   29 04      AND #$04
3338   8D 14 07   STA $0714
333B   20 50 B4   JSR $B450
333E   AD 0B 07   LDA $070B
3341   D0 16      BNE $3359
3343   A5 1D      LDA $1D
3345   C9 03      CMP #$03
3347   F0 05      BEQ $334E
3349   A0 18      LDY #$18
334B   8C 89 07   STY $0789
334E   20 04 8E   JSR $8E04
3351   5A         ???
3352   B3         ???
3353   76 B3      ROR $B3,X
3355   6D B3 CF   ADC $CFB3
3358   B3         ???
3359   60         RTS
335A   20 8F B5   JSR $B58F
335D   A5 0C      LDA $0C
335F   F0 02      BEQ $3363
3361   85 33      STA $33
3363   20 CC B5   JSR $B5CC
3366   20 09 BF   JSR $BF09
3369   8D FF 06   STA $06FF
336C   60         RTS
336D   AD 0A 07   LDA $070A
3370   8D 09 07   STA $0709
3373   4C AC B3   JMP $B3AC
3376   A4 9F      LDY $9F
3378   10 13      BPL $338D
337A   A5 0A      LDA $0A
337C   29 80      AND #$80
337E   25 0D      AND $0D
3380   D0 11      BNE $3393
3382   AD 08 07   LDA $0708
3385   38         SEC
3386   E5 CE      SBC $CE
3388   CD 06 07   CMP $0706
338B   90 06      BCC $3393
338D   AD 0A 07   LDA $070A
3390   8D 09 07   STA $0709
3393   AD 04 07   LDA $0704
3396   F0 14      BEQ $33AC
3398   20 8F B5   JSR $B58F
339B   A5 CE      LDA $CE
339D   C9 14      CMP #$14
339F   B0 05      BCS $33A6
33A1   A9 18      LDA #$18
33A3   8D 09 07   STA $0709
33A6   A5 0C      LDA $0C
33A8   F0 02      BEQ $33AC
33AA   85 33      STA $33
33AC   A5 0C      LDA $0C
33AE   F0 03      BEQ $33B3
33B0   20 CC B5   JSR $B5CC
33B3   20 09 BF   JSR $BF09
33B6   8D FF 06   STA $06FF
33B9   A5 0E      LDA $0E
33BB   C9 0B      CMP #$0B
33BD   D0 05      BNE $33C4
33BF   A9 28      LDA #$28
33C1   8D 09 07   STA $0709
33C4   4C 4D BF   JMP $BF4D
33C7   0E 04 FC   ASL $FC04
33CA   F2         ???
33CB   00         BRK
33CC   00         BRK
33CD   FF         ???
33CE   FF         ???
33CF   AD 16 04   LDA $0416
33D2   18         CLC
33D3   6D 33 04   ADC $0433
33D6   8D 16 04   STA $0416
33D9   A0 00      LDY #$00
33DB   A5 9F      LDA $9F
33DD   10 01      BPL $33E0
33DF   88         DEY
33E0   84 00      STY $00
33E2   65 CE      ADC $CE
33E4   85 CE      STA $CE
33E6   A5 B5      LDA $B5
33E8   65 00      ADC $00
33EA   85 B5      STA $B5
33EC   A5 0C      LDA $0C
33EE   2D 90 04   AND $0490
33F1   F0 2D      BEQ $3420
33F3   AC 89 07   LDY $0789
33F6   D0 27      BNE $341F
33F8   A0 18      LDY #$18
33FA   8C 89 07   STY $0789
33FD   A2 00      LDX #$00
33FF   A4 33      LDY $33
3401   4A         LSR A
3402   B0 02      BCS $3406
3404   E8         INX
3405   E8         INX
3406   88         DEY
3407   F0 01      BEQ $340A
3409   E8         INX
340A   A5 86      LDA $86
340C   18         CLC
340D   7D C7 B3   ADC $B3C7,X
3410   85 86      STA $86
3412   A5 6D      LDA $6D
3414   7D CB B3   ADC $B3CB,X
3417   85 6D      STA $6D
3419   A5 0C      LDA $0C
341B   49 03      EOR #$03
341D   85 33      STA $33
341F   60         RTS
3420   8D 89 07   STA $0789
3423   60         RTS
3424   20 20 1E   JSR $1E20
3427   28         PLP
3428   28         PLP
3429   0D 04 70   ORA $7004
342C   70 60      BVS $348E
342E   90 90      BCC $33C0
3430   0A         ASL A
3431   09 FC      ORA #$FC
3433   FC         ???
3434   FC         ???
3435   FB         ???
3436   FB         ???
3437   FE FF 00   INC $00FF,X
343A   00         BRK
343B   00         BRK
343C   00         BRK
343D   00         BRK
343E   80         ???
343F   00         BRK
3440   D8         CLD
3441   E8         INX
3442   F0 28      BEQ $346C
3444   18         CLC
3445   10 0C      BPL $3453
3447   E4 98      CPX $98
3449   D0 00      BNE $344B
344B   FF         ???
344C   01 00      ORA ($00,X)
344E   20 FF A5   JSR $A5FF
3451   1D C9 03   ORA $03C9,X
3454   D0 23      BNE $3479
3456   A0 00      LDY #$00
3458   A5 0B      LDA $0B
345A   2D 90 04   AND $0490
345D   F0 06      BEQ $3465
345F   C8         INY
3460   29 08      AND #$08
3462   D0 01      BNE $3465
3464   C8         INY
3465   BE 4D B4   LDX $B44D,Y
3468   8E 33 04   STX $0433
346B   A9 08      LDA #$08
346D   BE 4A B4   LDX $B44A,Y
3470   86 9F      STX $9F
3472   30 01      BMI $3475
3474   4A         LSR A
3475   8D 0C 07   STA $070C
3478   60         RTS
3479   AD 0E 07   LDA $070E
347C   D0 0A      BNE $3488
347E   A5 0A      LDA $0A
3480   29 80      AND #$80
3482   F0 04      BEQ $3488
3484   25 0D      AND $0D
3486   F0 03      BEQ $348B
3488   4C 1C B5   JMP $B51C
348B   A5 1D      LDA $1D
348D   F0 11      BEQ $34A0
348F   AD 04 07   LDA $0704
3492   F0 F4      BEQ $3488
3494   AD 82 07   LDA $0782
3497   D0 07      BNE $34A0
3499   A5 9F      LDA $9F
349B   10 03      BPL $34A0
349D   4C 1C B5   JMP $B51C
34A0   A9 20      LDA #$20
34A2   8D 82 07   STA $0782
34A5   A0 00      LDY #$00
34A7   8C 16 04   STY $0416
34AA   8C 33 04   STY $0433
34AD   A5 B5      LDA $B5
34AF   8D 07 07   STA $0707
34B2   A5 CE      LDA $CE
34B4   8D 08 07   STA $0708
34B7   A9 01      LDA #$01
34B9   85 1D      STA $1D
34BB   AD 00 07   LDA $0700
34BE   C9 09      CMP #$09
34C0   90 10      BCC $34D2
34C2   C8         INY
34C3   C9 10      CMP #$10
34C5   90 0B      BCC $34D2
34C7   C8         INY
34C8   C9 19      CMP #$19
34CA   90 06      BCC $34D2
34CC   C8         INY
34CD   C9 1C      CMP #$1C
34CF   90 01      BCC $34D2
34D1   C8         INY
34D2   A9 01      LDA #$01
34D4   8D 06 07   STA $0706
34D7   AD 04 07   LDA $0704
34DA   F0 08      BEQ $34E4
34DC   A0 05      LDY #$05
34DE   AD 7D 04   LDA $047D
34E1   F0 01      BEQ $34E4
34E3   C8         INY
34E4   B9 24 B4   LDA $B424,Y
34E7   8D 09 07   STA $0709
34EA   B9 2B B4   LDA $B42B,Y
34ED   8D 0A 07   STA $070A
34F0   B9 39 B4   LDA $B439,Y
34F3   8D 33 04   STA $0433
34F6   B9 32 B4   LDA $B432,Y
34F9   85 9F      STA $9F
34FB   AD 04 07   LDA $0704
34FE   F0 11      BEQ $3511
3500   A9 04      LDA #$04
3502   85 FF      STA $FF
3504   A5 CE      LDA $CE
3506   C9 14      CMP #$14
3508   B0 12      BCS $351C
350A   A9 00      LDA #$00
350C   85 9F      STA $9F
350E   4C 1C B5   JMP $B51C
3511   A9 01      LDA #$01
3513   AC 54 07   LDY $0754
3516   F0 02      BEQ $351A
3518   A9 80      LDA #$80
351A   85 FF      STA $FF
351C   A0 00      LDY #$00
351E   84 00      STY $00
3520   A5 1D      LDA $1D
3522   F0 09      BEQ $352D
3524   AD 00 07   LDA $0700
3527   C9 19      CMP #$19
3529   B0 33      BCS $355E
352B   90 18      BCC $3545
352D   C8         INY
352E   AD 4E 07   LDA $074E
3531   F0 12      BEQ $3545
3533   88         DEY
3534   A5 0C      LDA $0C
3536   C5 45      CMP $45
3538   D0 0B      BNE $3545
353A   A5 0A      LDA $0A
353C   29 40      AND #$40
353E   D0 19      BNE $3559
3540   AD 83 07   LDA $0783
3543   D0 19      BNE $355E
3545   C8         INY
3546   E6 00      INC $00
3548   AD 03 07   LDA $0703
354B   D0 07      BNE $3554
354D   AD 00 07   LDA $0700
3550   C9 21      CMP #$21
3552   90 0A      BCC $355E
3554   E6 00      INC $00
3556   4C 5E B5   JMP $B55E
3559   A9 0A      LDA #$0A
355B   8D 83 07   STA $0783
355E   B9 40 B4   LDA $B440,Y
3561   8D 50 04   STA $0450
3564   A5 0E      LDA $0E
3566   C9 07      CMP #$07
3568   D0 02      BNE $356C
356A   A0 03      LDY #$03
356C   B9 43 B4   LDA $B443,Y
356F   8D 56 04   STA $0456
3572   A4 00      LDY $00
3574   B9 47 B4   LDA $B447,Y
3577   8D 02 07   STA $0702
357A   A9 00      LDA #$00
357C   8D 01 07   STA $0701
357F   A5 33      LDA $33
3581   C5 45      CMP $45
3583   F0 06      BEQ $358B
3585   0E 02 07   ASL $0702
3588   2E 01 07   ROL $0701
358B   60         RTS
358C   02         ???
358D   04         ???
358E   07         ???
358F   A0 00      LDY #$00
3591   AD 00 07   LDA $0700
3594   C9 1C      CMP #$1C
3596   B0 15      BCS $35AD
3598   C8         INY
3599   C9 0E      CMP #$0E
359B   B0 01      BCS $359E
359D   C8         INY
359E   AD FC 06   LDA $06FC
35A1   29 7F      AND #$7F
35A3   F0 20      BEQ $35C5
35A5   29 03      AND #$03
35A7   C5 45      CMP $45
35A9   D0 08      BNE $35B3
35AB   A9 00      LDA #$00
35AD   8D 03 07   STA $0703
35B0   4C C5 B5   JMP $B5C5
35B3   AD 00 07   LDA $0700
35B6   C9 0B      CMP #$0B
35B8   B0 0B      BCS $35C5
35BA   A5 33      LDA $33
35BC   85 45      STA $45
35BE   A9 00      LDA #$00
35C0   85 57      STA $57
35C2   8D 05 07   STA $0705
35C5   B9 8C B5   LDA $B58C,Y
35C8   8D 0C 07   STA $070C
35CB   60         RTS
35CC   2D 90 04   AND $0490
35CF   C9 00      CMP #$00
35D1   D0 08      BNE $35DB
35D3   A5 57      LDA $57
35D5   F0 49      BEQ $3620
35D7   10 23      BPL $35FC
35D9   30 03      BMI $35DE
35DB   4A         LSR A
35DC   90 1E      BCC $35FC
35DE   AD 05 07   LDA $0705
35E1   18         CLC
35E2   6D 02 07   ADC $0702
35E5   8D 05 07   STA $0705
35E8   A5 57      LDA $57
35EA   6D 01 07   ADC $0701
35ED   85 57      STA $57
35EF   CD 56 04   CMP $0456
35F2   30 23      BMI $3617
35F4   AD 56 04   LDA $0456
35F7   85 57      STA $57
35F9   4C 20 B6   JMP $B620
35FC   AD 05 07   LDA $0705
35FF   38         SEC
3600   ED 02 07   SBC $0702
3603   8D 05 07   STA $0705
3606   A5 57      LDA $57
3608   ED 01 07   SBC $0701
360B   85 57      STA $57
360D   CD 50 04   CMP $0450
3610   10 05      BPL $3617
3612   AD 50 04   LDA $0450
3615   85 57      STA $57
3617   C9 00      CMP #$00
3619   10 05      BPL $3620
361B   49 FF      EOR #$FF
361D   18         CLC
361E   69 01      ADC #$01
3620   8D 00 07   STA $0700
3623   60         RTS
3624   AD 56 07   LDA $0756
3627   C9 02      CMP #$02
3629   90 43      BCC $366E
362B   A5 0A      LDA $0A
362D   29 40      AND #$40
362F   F0 33      BEQ $3664
3631   25 0D      AND $0D
3633   D0 2F      BNE $3664
3635   AD CE 06   LDA $06CE
3638   29 01      AND #$01
363A   AA         TAX
363B   B5 24      LDA $24,X
363D   D0 25      BNE $3664
363F   A4 B5      LDY $B5
3641   88         DEY
3642   D0 20      BNE $3664
3644   AD 14 07   LDA $0714
3647   D0 1B      BNE $3664
3649   A5 1D      LDA $1D
364B   C9 03      CMP #$03
364D   F0 15      BEQ $3664
364F   A9 20      LDA #$20
3651   85 FF      STA $FF
3653   A9 02      LDA #$02
3655   95 24      STA $24,X
3657   AC 0C 07   LDY $070C
365A   8C 11 07   STY $0711
365D   88         DEY
365E   8C 81 07   STY $0781
3661   EE CE 06   INC $06CE
3664   A2 00      LDX #$00
3666   20 89 B6   JSR $B689
3669   A2 01      LDX #$01
366B   20 89 B6   JSR $B689
366E   AD 4E 07   LDA $074E
3671   D0 13      BNE $3686
3673   A2 02      LDX #$02
3675   86 08      STX $08
3677   20 F9 B6   JSR $B6F9
367A   20 31 F1   JSR $F131
367D   20 91 F1   JSR $F191
3680   20 E1 ED   JSR $EDE1
3683   CA         DEX
3684   10 EF      BPL $3675
3686   60         RTS
3687   40         RTI
3688   C0 86      CPY #$86
368A   08         PHP
368B   B5 24      LDA $24,X
368D   0A         ASL A
368E   B0 63      BCS $36F3
3690   B4 24      LDY $24,X
3692   F0 5E      BEQ $36F2
3694   88         DEY
3695   F0 27      BEQ $36BE
3697   A5 86      LDA $86
3699   69 04      ADC #$04
369B   95 8D      STA $8D,X
369D   A5 6D      LDA $6D
369F   69 00      ADC #$00
36A1   95 74      STA $74,X
36A3   A5 CE      LDA $CE
36A5   95 D5      STA $D5,X
36A7   A9 01      LDA #$01
36A9   95 BC      STA $BC,X
36AB   A4 33      LDY $33
36AD   88         DEY
36AE   B9 87 B6   LDA $B687,Y
36B1   95 5E      STA $5E,X
36B3   A9 04      LDA #$04
36B5   95 A6      STA $A6,X
36B7   A9 07      LDA #$07
36B9   9D A0 04   STA $04A0,X
36BC   D6 24      DEC $24,X
36BE   8A         TXA
36BF   18         CLC
36C0   69 07      ADC #$07
36C2   AA         TAX
36C3   A9 50      LDA #$50
36C5   85 00      STA $00
36C7   A9 03      LDA #$03
36C9   85 02      STA $02
36CB   A9 00      LDA #$00
36CD   20 D7 BF   JSR $BFD7
36D0   20 0F BF   JSR $BF0F
36D3   A6 08      LDX $08
36D5   20 3B F1   JSR $F13B
36D8   20 87 F1   JSR $F187
36DB   20 2D E2   JSR $E22D
36DE   20 C8 E1   JSR $E1C8
36E1   AD D2 03   LDA $03D2
36E4   29 CC      AND #$CC
36E6   D0 06      BNE $36EE
36E8   20 D9 D6   JSR $D6D9
36EB   4C DE EC   JMP $ECDE
36EE   A9 00      LDA #$00
36F0   95 24      STA $24,X
36F2   60         RTS
36F3   20 3B F1   JSR $F13B
36F6   4C 09 ED   JMP $ED09
36F9   BD A8 07   LDA $07A8,X
36FC   29 01      AND #$01
36FE   85 07      STA $07
3700   B5 E4      LDA $E4,X
3702   C9 F8      CMP #$F8
3704   D0 2C      BNE $3732
3706   AD 92 07   LDA $0792
3709   D0 3F      BNE $374A
370B   A0 00      LDY #$00
370D   A5 33      LDA $33
370F   4A         LSR A
3710   90 02      BCC $3714
3712   A0 08      LDY #$08
3714   98         TYA
3715   65 86      ADC $86
3717   95 9C      STA $9C,X
3719   A5 6D      LDA $6D
371B   69 00      ADC #$00
371D   95 83      STA $83,X
371F   A5 CE      LDA $CE
3721   18         CLC
3722   69 08      ADC #$08
3724   95 E4      STA $E4,X
3726   A9 01      LDA #$01
3728   95 CB      STA $CB,X
372A   A4 07      LDY $07
372C   B9 4D B7   LDA $B74D,Y
372F   8D 92 07   STA $0792
3732   A4 07      LDY $07
3734   BD 2C 04   LDA $042C,X
3737   38         SEC
3738   F9 4B B7   SBC $B74B,Y
373B   9D 2C 04   STA $042C,X
373E   B5 E4      LDA $E4,X
3740   E9 00      SBC #$00
3742   C9 20      CMP #$20
3744   B0 02      BCS $3748
3746   A9 F8      LDA #$F8
3748   95 E4      STA $E4,X
374A   60         RTS
374B   FF         ???
374C   50 40      BVC $378E
374E   20 AD 70   JSR $70AD
3751   07         ???
3752   F0 4F      BEQ $37A3
3754   A5 0E      LDA $0E
3756   C9 08      CMP #$08
3758   90 49      BCC $37A3
375A   C9 0B      CMP #$0B
375C   F0 45      BEQ $37A3
375E   A5 B5      LDA $B5
3760   C9 02      CMP #$02
3762   B0 3F      BCS $37A3
3764   AD 87 07   LDA $0787
3767   D0 3A      BNE $37A3
3769   AD F8 07   LDA $07F8
376C   0D F9 07   ORA $07F9
376F   0D FA 07   ORA $07FA
3772   F0 26      BEQ $379A
3774   AC F8 07   LDY $07F8
3777   88         DEY
3778   D0 0C      BNE $3786
377A   AD F9 07   LDA $07F9
377D   0D FA 07   ORA $07FA
3780   D0 04      BNE $3786
3782   A9 40      LDA #$40
3784   85 FC      STA $FC
3786   A9 18      LDA #$18
3788   8D 87 07   STA $0787
378B   A0 23      LDY #$23
378D   A9 FF      LDA #$FF
378F   8D 39 01   STA $0139
3792   20 5F 8F   JSR $8F5F
3795   A9 A4      LDA #$A4
3797   4C 06 8F   JMP $8F06
379A   8D 56 07   STA $0756
379D   20 31 D9   JSR $D931
37A0   EE 59 07   INC $0759
37A3   60         RTS
37A4   AD 23 07   LDA $0723
37A7   F0 FA      BEQ $37A3
37A9   A5 CE      LDA $CE
37AB   25 B5      AND $B5
37AD   D0 F4      BNE $37A3
37AF   8D 23 07   STA $0723
37B2   EE D6 06   INC $06D6
37B5   4C 98 C9   JMP $C998
37B8   AD 4E 07   LDA $074E
37BB   D0 37      BNE $37F4
37BD   8D 7D 04   STA $047D
37C0   AD 47 07   LDA $0747
37C3   D0 2F      BNE $37F4
37C5   A0 04      LDY #$04
37C7   B9 71 04   LDA $0471,Y
37CA   18         CLC
37CB   79 77 04   ADC $0477,Y
37CE   85 02      STA $02
37D0   B9 6B 04   LDA $046B,Y
37D3   F0 1C      BEQ $37F1
37D5   69 00      ADC #$00
37D7   85 01      STA $01
37D9   A5 86      LDA $86
37DB   38         SEC
37DC   F9 71 04   SBC $0471,Y
37DF   A5 6D      LDA $6D
37E1   F9 6B 04   SBC $046B,Y
37E4   30 0B      BMI $37F1
37E6   A5 02      LDA $02
37E8   38         SEC
37E9   E5 86      SBC $86
37EB   A5 01      LDA $01
37ED   E5 6D      SBC $6D
37EF   10 04      BPL $37F5
37F1   88         DEY
37F2   10 D3      BPL $37C7
37F4   60         RTS
37F5   B9 77 04   LDA $0477,Y
37F8   4A         LSR A
37F9   85 00      STA $00
37FB   B9 71 04   LDA $0471,Y
37FE   18         CLC
37FF   65 00      ADC $00
3801   85 01      STA $01
3803   B9 6B 04   LDA $046B,Y
3806   69 00      ADC #$00
3808   85 00      STA $00
380A   A5 09      LDA $09
380C   4A         LSR A
380D   90 2C      BCC $383B
380F   A5 01      LDA $01
3811   38         SEC
3812   E5 86      SBC $86
3814   A5 00      LDA $00
3816   E5 6D      SBC $6D
3818   10 0E      BPL $3828
381A   A5 86      LDA $86
381C   38         SEC
381D   E9 01      SBC #$01
381F   85 86      STA $86
3821   A5 6D      LDA $6D
3823   E9 00      SBC #$00
3825   4C 39 B8   JMP $B839
3828   AD 90 04   LDA $0490
382B   4A         LSR A
382C   90 0D      BCC $383B
382E   A5 86      LDA $86
3830   18         CLC
3831   69 01      ADC #$01
3833   85 86      STA $86
3835   A5 6D      LDA $6D
3837   69 00      ADC #$00
3839   85 6D      STA $6D
383B   A9 10      LDA #$10
383D   85 00      STA $00
383F   A9 01      LDA #$01
3841   8D 7D 04   STA $047D
3844   85 02      STA $02
3846   4A         LSR A
3847   AA         TAX
3848   4C D7 BF   JMP $BFD7
384B   05 02      ORA $02
384D   08         PHP
384E   04         ???
384F   01 03      ORA ($03,X)
3851   03         ???
3852   04         ???
3853   04         ???
3854   04         ???
3855   A2 05      LDX #$05
3857   86 08      STX $08
3859   B5 16      LDA $16,X
385B   C9 30      CMP #$30
385D   D0 56      BNE $38B5
385F   A5 0E      LDA $0E
3861   C9 04      CMP #$04
3863   D0 31      BNE $3896
3865   A5 1D      LDA $1D
3867   C9 03      CMP #$03
3869   D0 2B      BNE $3896
386B   B5 CF      LDA $CF,X
386D   C9 AA      CMP #$AA
386F   B0 28      BCS $3899
3871   A5 CE      LDA $CE
3873   C9 A2      CMP #$A2
3875   B0 22      BCS $3899
3877   BD 17 04   LDA $0417,X
387A   69 FF      ADC #$FF
387C   9D 17 04   STA $0417,X
387F   B5 CF      LDA $CF,X
3881   69 01      ADC #$01
3883   95 CF      STA $CF,X
3885   AD 0E 01   LDA $010E
3888   38         SEC
3889   E9 FF      SBC #$FF
388B   8D 0E 01   STA $010E
388E   AD 0D 01   LDA $010D
3891   E9 01      SBC #$01
3893   8D 0D 01   STA $010D
3896   4C AC B8   JMP $B8AC
3899   AC 0F 01   LDY $010F
389C   B9 4B B8   LDA $B84B,Y
389F   BE 50 B8   LDX $B850,Y
38A2   9D 34 01   STA $0134,X
38A5   20 27 BC   JSR $BC27
38A8   A9 05      LDA #$05
38AA   85 0E      STA $0E
38AC   20 AF F1   JSR $F1AF
38AF   20 52 F1   JSR $F152
38B2   20 4B E5   JSR $E54B
38B5   60         RTS
38B6   08         PHP
38B7   10 08      BPL $38C1
38B9   00         BRK
38BA   20 AF F1   JSR $F1AF
38BD   AD 47 07   LDA $0747
38C0   D0 40      BNE $3902
38C2   AD 0E 07   LDA $070E
38C5   F0 3B      BEQ $3902
38C7   A8         TAY
38C8   88         DEY
38C9   98         TYA
38CA   29 02      AND #$02
38CC   D0 07      BNE $38D5
38CE   E6 CE      INC $CE
38D0   E6 CE      INC $CE
38D2   4C D9 B8   JMP $B8D9
38D5   C6 CE      DEC $CE
38D7   C6 CE      DEC $CE
38D9   B5 58      LDA $58,X
38DB   18         CLC
38DC   79 B6 B8   ADC $B8B6,Y
38DF   95 CF      STA $CF,X
38E1   C0 01      CPY #$01
38E3   90 0F      BCC $38F4
38E5   A5 0A      LDA $0A
38E7   29 80      AND #$80
38E9   F0 09      BEQ $38F4
38EB   25 0D      AND $0D
38ED   D0 05      BNE $38F4
38EF   A9 F4      LDA #$F4
38F1   8D DB 06   STA $06DB
38F4   C0 03      CPY #$03
38F6   D0 0A      BNE $3902
38F8   AD DB 06   LDA $06DB
38FB   85 9F      STA $9F
38FD   A9 00      LDA #$00
38FF   8D 0E 07   STA $070E
3902   20 52 F1   JSR $F152
3905   20 7D E8   JSR $E87D
3908   20 7A D6   JSR $D67A
390B   AD 0E 07   LDA $070E
390E   F0 0D      BEQ $391D
3910   AD 86 07   LDA $0786
3913   D0 08      BNE $391D
3915   A9 04      LDA #$04
3917   8D 86 07   STA $0786
391A   EE 0E 07   INC $070E
391D   60         RTS
391E   A9 2F      LDA #$2F
3920   95 16      STA $16,X
3922   A9 01      LDA #$01
3924   95 0F      STA $0F,X
3926   B9 76 00   LDA $0076,Y
3929   95 6E      STA $6E,X
392B   B9 8F 00   LDA $008F,Y
392E   95 87      STA $87,X
3930   B9 D7 00   LDA $00D7,Y
3933   95 CF      STA $CF,X
3935   AC 98 03   LDY $0398
3938   D0 03      BNE $393D
393A   8D 9D 03   STA $039D
393D   8A         TXA
393E   99 9A 03   STA $039A,Y
3941   EE 98 03   INC $0398
3944   A9 04      LDA #$04
3946   85 FE      STA $FE
3948   60         RTS
3949   30 60      BMI $39AB
394B   E0 05      CPX #$05
394D   D0 68      BNE $39B7
394F   AC 98 03   LDY $0398
3952   88         DEY
3953   AD 99 03   LDA $0399
3956   D9 49 B9   CMP $B949,Y
3959   F0 0F      BEQ $396A
395B   A5 09      LDA $09
395D   4A         LSR A
395E   4A         LSR A
395F   90 09      BCC $396A
3961   A5 D4      LDA $D4
3963   E9 01      SBC #$01
3965   85 D4      STA $D4
3967   EE 99 03   INC $0399
396A   AD 99 03   LDA $0399
396D   C9 08      CMP #$08
396F   90 46      BCC $39B7
3971   20 52 F1   JSR $F152
3974   20 AF F1   JSR $F1AF
3977   A0 00      LDY #$00
3979   20 35 E4   JSR $E435
397C   C8         INY
397D   CC 98 03   CPY $0398
3980   D0 F7      BNE $3979
3982   AD D1 03   LDA $03D1
3985   29 0C      AND #$0C
3987   F0 10      BEQ $3999
3989   88         DEY
398A   BE 9A 03   LDX $039A,Y
398D   20 98 C9   JSR $C998
3990   88         DEY
3991   10 F7      BPL $398A
3993   8D 98 03   STA $0398
3996   8D 99 03   STA $0399
3999   AD 99 03   LDA $0399
399C   C9 20      CMP #$20
399E   90 17      BCC $39B7
39A0   A2 06      LDX #$06
39A2   A9 01      LDA #$01
39A4   A0 1B      LDY #$1B
39A6   20 F0 E3   JSR $E3F0
39A9   A4 02      LDY $02
39AB   C0 D0      CPY #$D0
39AD   B0 08      BCS $39B7
39AF   B1 06      LDA ($06),Y
39B1   D0 04      BNE $39B7
39B3   A9 26      LDA #$26
39B5   91 06      STA ($06),Y
39B7   A6 08      LDX $08
39B9   60         RTS
39BA   0F         ???
39BB   07         ???
39BC   AD 4E 07   LDA $074E
39BF   F0 6F      BEQ $3A30
39C1   A2 02      LDX #$02
39C3   86 08      STX $08
39C5   B5 0F      LDA $0F,X
39C7   D0 51      BNE $3A1A
39C9   BD A8 07   LDA $07A8,X
39CC   AC CC 06   LDY $06CC
39CF   39 BA B9   AND $B9BA,Y
39D2   C9 06      CMP #$06
39D4   B0 44      BCS $3A1A
39D6   A8         TAY
39D7   B9 6B 04   LDA $046B,Y
39DA   F0 3E      BEQ $3A1A
39DC   B9 7D 04   LDA $047D,Y
39DF   F0 08      BEQ $39E9
39E1   E9 00      SBC #$00
39E3   99 7D 04   STA $047D,Y
39E6   4C 1A BA   JMP $BA1A
39E9   AD 47 07   LDA $0747
39EC   D0 2C      BNE $3A1A
39EE   A9 0E      LDA #$0E
39F0   99 7D 04   STA $047D,Y
39F3   B9 6B 04   LDA $046B,Y
39F6   95 6E      STA $6E,X
39F8   B9 71 04   LDA $0471,Y
39FB   95 87      STA $87,X
39FD   B9 77 04   LDA $0477,Y
3A00   38         SEC
3A01   E9 08      SBC #$08
3A03   95 CF      STA $CF,X
3A05   A9 01      LDA #$01
3A07   95 B6      STA $B6,X
3A09   95 0F      STA $0F,X
3A0B   4A         LSR A
3A0C   95 1E      STA $1E,X
3A0E   A9 09      LDA #$09
3A10   9D 9A 04   STA $049A,X
3A13   A9 33      LDA #$33
3A15   95 16      STA $16,X
3A17   4C 2D BA   JMP $BA2D
3A1A   B5 16      LDA $16,X
3A1C   C9 33      CMP #$33
3A1E   D0 0D      BNE $3A2D
3A20   20 7A D6   JSR $D67A
3A23   B5 0F      LDA $0F,X
3A25   F0 06      BEQ $3A2D
3A27   20 AF F1   JSR $F1AF
3A2A   20 33 BA   JSR $BA33
3A2D   CA         DEX
3A2E   10 93      BPL $39C3
3A30   60         RTS
3A31   18         CLC
3A32   E8         INX
3A33   AD 47 07   LDA $0747
3A36   D0 3E      BNE $3A76
3A38   B5 1E      LDA $1E,X
3A3A   D0 2E      BNE $3A6A
3A3C   AD D1 03   LDA $03D1
3A3F   29 0C      AND #$0C
3A41   C9 0C      CMP #$0C
3A43   F0 40      BEQ $3A85
3A45   A0 01      LDY #$01
3A47   20 43 E1   JSR $E143
3A4A   30 01      BMI $3A4D
3A4C   C8         INY
3A4D   94 46      STY $46,X
3A4F   88         DEY
3A50   B9 31 BA   LDA $BA31,Y
3A53   95 58      STA $58,X
3A55   A5 00      LDA $00
3A57   69 28      ADC #$28
3A59   C9 50      CMP #$50
3A5B   90 28      BCC $3A85
3A5D   A9 01      LDA #$01
3A5F   95 1E      STA $1E,X
3A61   A9 0A      LDA #$0A
3A63   9D 8A 07   STA $078A,X
3A66   A9 08      LDA #$08
3A68   85 FE      STA $FE
3A6A   B5 1E      LDA $1E,X
3A6C   29 20      AND #$20
3A6E   F0 03      BEQ $3A73
3A70   20 63 BF   JSR $BF63
3A73   20 02 BF   JSR $BF02
3A76   20 AF F1   JSR $F1AF
3A79   20 52 F1   JSR $F152
3A7C   20 43 E2   JSR $E243
3A7F   20 53 D8   JSR $D853
3A82   4C 7D E8   JMP $E87D
3A85   20 98 C9   JSR $C998
3A88   60         RTS
3A89   04         ???
3A8A   04         ???
3A8B   04         ???
3A8C   05 05      ORA $05
3A8E   05 06      ORA $06
3A90   06 06      ASL $06
3A92   10 F0      BPL $3A84
3A94   AD A8 07   LDA $07A8
3A97   29 07      AND #$07
3A99   D0 05      BNE $3AA0
3A9B   AD A8 07   LDA $07A8
3A9E   29 08      AND #$08
3AA0   A8         TAY
3AA1   B9 2A 00   LDA $002A,Y
3AA4   D0 19      BNE $3ABF
3AA6   BE 89 BA   LDX $BA89,Y
3AA9   B5 0F      LDA $0F,X
3AAB   D0 12      BNE $3ABF
3AAD   A6 08      LDX $08
3AAF   8A         TXA
3AB0   99 AE 06   STA $06AE,Y
3AB3   A9 90      LDA #$90
3AB5   99 2A 00   STA $002A,Y
3AB8   A9 07      LDA #$07
3ABA   99 A2 04   STA $04A2,Y
3ABD   38         SEC
3ABE   60         RTS
3ABF   A6 08      LDX $08
3AC1   18         CLC
3AC2   60         RTS
3AC3   AD 47 07   LDA $0747
3AC6   D0 63      BNE $3B2B
3AC8   B5 2A      LDA $2A,X
3ACA   29 7F      AND #$7F
3ACC   BC AE 06   LDY $06AE,X
3ACF   C9 02      CMP #$02
3AD1   F0 20      BEQ $3AF3
3AD3   B0 34      BCS $3B09
3AD5   8A         TXA
3AD6   18         CLC
3AD7   69 0D      ADC #$0D
3AD9   AA         TAX
3ADA   A9 10      LDA #$10
3ADC   85 00      STA $00
3ADE   A9 0F      LDA #$0F
3AE0   85 01      STA $01
3AE2   A9 04      LDA #$04
3AE4   85 02      STA $02
3AE6   A9 00      LDA #$00
3AE8   20 D7 BF   JSR $BFD7
3AEB   20 0F BF   JSR $BF0F
3AEE   A6 08      LDX $08
3AF0   4C 28 BB   JMP $BB28
3AF3   A9 FE      LDA #$FE
3AF5   95 AC      STA $AC,X
3AF7   B9 1E 00   LDA $001E,Y
3AFA   29 F7      AND #$F7
3AFC   99 1E 00   STA $001E,Y
3AFF   B6 46      LDX $46,Y
3B01   CA         DEX
3B02   BD 92 BA   LDA $BA92,X
3B05   A6 08      LDX $08
3B07   95 64      STA $64,X
3B09   D6 2A      DEC $2A,X
3B0B   B9 87 00   LDA $0087,Y
3B0E   18         CLC
3B0F   69 02      ADC #$02
3B11   95 93      STA $93,X
3B13   B9 6E 00   LDA $006E,Y
3B16   69 00      ADC #$00
3B18   95 7A      STA $7A,X
3B1A   B9 CF 00   LDA $00CF,Y
3B1D   38         SEC
3B1E   E9 0A      SBC #$0A
3B20   95 DB      STA $DB,X
3B22   A9 01      LDA #$01
3B24   95 C2      STA $C2,X
3B26   D0 03      BNE $3B2B
3B28   20 C4 D7   JSR $D7C4
3B2B   20 9B F1   JSR $F19B
3B2E   20 48 F1   JSR $F148
3B31   20 36 E2   JSR $E236
3B34   20 DC E4   JSR $E4DC
3B37   60         RTS
3B38   20 84 BB   JSR $BB84
3B3B   B5 76      LDA $76,X
3B3D   99 7A 00   STA $007A,Y
3B40   B5 8F      LDA $8F,X
3B42   09 05      ORA #$05
3B44   99 93 00   STA $0093,Y
3B47   B5 D7      LDA $D7,X
3B49   E9 10      SBC #$10
3B4B   99 DB 00   STA $00DB,Y
3B4E   4C 6C BB   JMP $BB6C
3B51   20 84 BB   JSR $BB84
3B54   BD EA 03   LDA $03EA,X
3B57   99 7A 00   STA $007A,Y
3B5A   A5 06      LDA $06
3B5C   0A         ASL A
3B5D   0A         ASL A
3B5E   0A         ASL A
3B5F   0A         ASL A
3B60   09 05      ORA #$05
3B62   99 93 00   STA $0093,Y
3B65   A5 02      LDA $02
3B67   69 20      ADC #$20
3B69   99 DB 00   STA $00DB,Y
3B6C   A9 FB      LDA #$FB
3B6E   99 AC 00   STA $00AC,Y
3B71   A9 01      LDA #$01
3B73   99 C2 00   STA $00C2,Y
3B76   99 2A 00   STA $002A,Y
3B79   85 FE      STA $FE
3B7B   86 08      STX $08
3B7D   20 FE BB   JSR $BBFE
3B80   EE 48 07   INC $0748
3B83   60         RTS
3B84   A0 08      LDY #$08
3B86   B9 2A 00   LDA $002A,Y
3B89   F0 07      BEQ $3B92
3B8B   88         DEY
3B8C   C0 05      CPY #$05
3B8E   D0 F6      BNE $3B86
3B90   A0 08      LDY #$08
3B92   8C B7 06   STY $06B7
3B95   60         RTS
3B96   A2 08      LDX #$08
3B98   86 08      STX $08
3B9A   B5 2A      LDA $2A,X
3B9C   F0 56      BEQ $3BF4
3B9E   0A         ASL A
3B9F   90 06      BCC $3BA7
3BA1   20 C3 BA   JSR $BAC3
3BA4   4C F4 BB   JMP $BBF4
3BA7   B4 2A      LDY $2A,X
3BA9   88         DEY
3BAA   F0 1D      BEQ $3BC9
3BAC   F6 2A      INC $2A,X
3BAE   B5 93      LDA $93,X
3BB0   18         CLC
3BB1   6D 75 07   ADC $0775
3BB4   95 93      STA $93,X
3BB6   B5 7A      LDA $7A,X
3BB8   69 00      ADC #$00
3BBA   95 7A      STA $7A,X
3BBC   B5 2A      LDA $2A,X
3BBE   C9 30      CMP #$30
3BC0   D0 26      BNE $3BE8
3BC2   A9 00      LDA #$00
3BC4   95 2A      STA $2A,X
3BC6   4C F4 BB   JMP $BBF4
3BC9   8A         TXA
3BCA   18         CLC
3BCB   69 0D      ADC #$0D
3BCD   AA         TAX
3BCE   A9 50      LDA #$50
3BD0   85 00      STA $00
3BD2   A9 06      LDA #$06
3BD4   85 02      STA $02
3BD6   4A         LSR A
3BD7   85 01      STA $01
3BD9   A9 00      LDA #$00
3BDB   20 D7 BF   JSR $BFD7
3BDE   A6 08      LDX $08
3BE0   B5 AC      LDA $AC,X
3BE2   C9 05      CMP #$05
3BE4   D0 02      BNE $3BE8
3BE6   F6 2A      INC $2A,X
3BE8   20 48 F1   JSR $F148
3BEB   20 9B F1   JSR $F19B
3BEE   20 36 E2   JSR $E236
3BF1   20 86 E6   JSR $E686
3BF4   CA         DEX
3BF5   10 A1      BPL $3B98
3BF7   60         RTS
3BF8   17         ???
3BF9   1D 0B 11   ORA $110B,X
3BFC   02         ???
3BFD   13         ???
3BFE   A9 01      LDA #$01
3C00   8D 39 01   STA $0139
3C03   AE 53 07   LDX $0753
3C06   BC F8 BB   LDY $BBF8,X
3C09   20 5F 8F   JSR $8F5F
3C0C   EE 5E 07   INC $075E
3C0F   AD 5E 07   LDA $075E
3C12   C9 64      CMP #$64
3C14   D0 0C      BNE $3C22
3C16   A9 00      LDA #$00
3C18   8D 5E 07   STA $075E
3C1B   EE 5A 07   INC $075A
3C1E   A9 40      LDA #$40
3C20   85 FE      STA $FE
3C22   A9 02      LDA #$02
3C24   8D 38 01   STA $0138
3C27   AE 53 07   LDX $0753
3C2A   BC FA BB   LDY $BBFA,X
3C2D   20 5F 8F   JSR $8F5F
3C30   AC 53 07   LDY $0753
3C33   B9 FC BB   LDA $BBFC,Y
3C36   20 06 8F   JSR $8F06
3C39   AC 00 03   LDY $0300
3C3C   B9 FB 02   LDA $02FB,Y
3C3F   D0 05      BNE $3C46
3C41   A9 24      LDA #$24
3C43   99 FB 02   STA $02FB,Y
3C46   A6 08      LDX $08
3C48   60         RTS
3C49   A9 2E      LDA #$2E
3C4B   85 1B      STA $1B
3C4D   B5 76      LDA $76,X
3C4F   85 73      STA $73
3C51   B5 8F      LDA $8F,X
3C53   85 8C      STA $8C
3C55   A9 01      LDA #$01
3C57   85 BB      STA $BB
3C59   B5 D7      LDA $D7,X
3C5B   38         SEC
3C5C   E9 08      SBC #$08
3C5E   85 D4      STA $D4
3C60   A9 01      LDA #$01
3C62   85 23      STA $23
3C64   85 14      STA $14
3C66   A9 03      LDA #$03
3C68   8D 9F 04   STA $049F
3C6B   A5 39      LDA $39
3C6D   C9 02      CMP #$02
3C6F   B0 0A      BCS $3C7B
3C71   AD 56 07   LDA $0756
3C74   C9 02      CMP #$02
3C76   90 01      BCC $3C79
3C78   4A         LSR A
3C79   85 39      STA $39
3C7B   A9 20      LDA #$20
3C7D   8D CA 03   STA $03CA
3C80   A9 02      LDA #$02
3C82   85 FE      STA $FE
3C84   60         RTS
3C85   A2 05      LDX #$05
3C87   86 08      STX $08
3C89   A5 23      LDA $23
3C8B   F0 5D      BEQ $3CEA
3C8D   0A         ASL A
3C8E   90 23      BCC $3CB3
3C90   AD 47 07   LDA $0747
3C93   D0 43      BNE $3CD8
3C95   A5 39      LDA $39
3C97   F0 11      BEQ $3CAA
3C99   C9 03      CMP #$03
3C9B   F0 0D      BEQ $3CAA
3C9D   C9 02      CMP #$02
3C9F   D0 37      BNE $3CD8
3CA1   20 F9 CA   JSR $CAF9
3CA4   20 63 E1   JSR $E163
3CA7   4C D8 BC   JMP $BCD8
3CAA   20 77 CA   JSR $CA77
3CAD   20 C1 DF   JSR $DFC1
3CB0   4C D8 BC   JMP $BCD8
3CB3   A5 09      LDA $09
3CB5   29 03      AND #$03
3CB7   D0 19      BNE $3CD2
3CB9   C6 D4      DEC $D4
3CBB   A5 23      LDA $23
3CBD   E6 23      INC $23
3CBF   C9 11      CMP #$11
3CC1   90 0F      BCC $3CD2
3CC3   A9 10      LDA #$10
3CC5   95 58      STA $58,X
3CC7   A9 80      LDA #$80
3CC9   85 23      STA $23
3CCB   0A         ASL A
3CCC   8D CA 03   STA $03CA
3CCF   2A         ROL A
3CD0   95 46      STA $46,X
3CD2   A5 23      LDA $23
3CD4   C9 06      CMP #$06
3CD6   90 12      BCC $3CEA
3CD8   20 52 F1   JSR $F152
3CDB   20 AF F1   JSR $F1AF
3CDE   20 43 E2   JSR $E243
3CE1   20 D2 E6   JSR $E6D2
3CE4   20 53 D8   JSR $D853
3CE7   20 7A D6   JSR $D67A
3CEA   60         RTS
3CEB   04         ???
3CEC   12         ???
3CED   48         PHA
3CEE   A9 11      LDA #$11
3CF0   AE EE 03   LDX $03EE
3CF3   AC 54 07   LDY $0754
3CF6   D0 02      BNE $3CFA
3CF8   A9 12      LDA #$12
3CFA   95 26      STA $26,X
3CFC   20 6B 8A   JSR $8A6B
3CFF   AE EE 03   LDX $03EE
3D02   A5 02      LDA $02
3D04   9D E4 03   STA $03E4,X
3D07   A8         TAY
3D08   A5 06      LDA $06
3D0A   9D E6 03   STA $03E6,X
3D0D   B1 06      LDA ($06),Y
3D0F   20 F6 BD   JSR $BDF6
3D12   85 00      STA $00
3D14   AC 54 07   LDY $0754
3D17   D0 01      BNE $3D1A
3D19   98         TYA
3D1A   90 25      BCC $3D41
3D1C   A0 11      LDY #$11
3D1E   94 26      STY $26,X
3D20   A9 C4      LDA #$C4
3D22   A4 00      LDY $00
3D24   C0 58      CPY #$58
3D26   F0 04      BEQ $3D2C
3D28   C0 5D      CPY #$5D
3D2A   D0 15      BNE $3D41
3D2C   AD BC 06   LDA $06BC
3D2F   D0 08      BNE $3D39
3D31   A9 0B      LDA #$0B
3D33   8D 9D 07   STA $079D
3D36   EE BC 06   INC $06BC
3D39   AD 9D 07   LDA $079D
3D3C   D0 02      BNE $3D40
3D3E   A0 C4      LDY #$C4
3D40   98         TYA
3D41   9D E8 03   STA $03E8,X
3D44   20 84 BD   JSR $BD84
3D47   A4 02      LDY $02
3D49   A9 23      LDA #$23
3D4B   91 06      STA ($06),Y
3D4D   A9 10      LDA #$10
3D4F   8D 84 07   STA $0784
3D52   68         PLA
3D53   85 05      STA $05
3D55   A0 00      LDY #$00
3D57   AD 14 07   LDA $0714
3D5A   D0 05      BNE $3D61
3D5C   AD 54 07   LDA $0754
3D5F   F0 01      BEQ $3D62
3D61   C8         INY
3D62   A5 CE      LDA $CE
3D64   18         CLC
3D65   79 EB BC   ADC $BCEB,Y
3D68   29 F0      AND #$F0
3D6A   95 D7      STA $D7,X
3D6C   B4 26      LDY $26,X
3D6E   C0 11      CPY #$11
3D70   F0 06      BEQ $3D78
3D72   20 02 BE   JSR $BE02
3D75   4C 7B BD   JMP $BD7B
3D78   20 9B BD   JSR $BD9B
3D7B   AD EE 03   LDA $03EE
3D7E   49 01      EOR #$01
3D80   8D EE 03   STA $03EE
3D83   60         RTS
3D84   A5 86      LDA $86
3D86   18         CLC
3D87   69 08      ADC #$08
3D89   29 F0      AND #$F0
3D8B   95 8F      STA $8F,X
3D8D   A5 6D      LDA $6D
3D8F   69 00      ADC #$00
3D91   95 76      STA $76,X
3D93   9D EA 03   STA $03EA,X
3D96   A5 B5      LDA $B5
3D98   95 BE      STA $BE,X
3D9A   60         RTS
3D9B   20 1F BE   JSR $BE1F
3D9E   A9 02      LDA #$02
3DA0   85 FF      STA $FF
3DA2   A9 00      LDA #$00
3DA4   95 60      STA $60,X
3DA6   9D 3C 04   STA $043C,X
3DA9   85 9F      STA $9F
3DAB   A9 FE      LDA #$FE
3DAD   95 A8      STA $A8,X
3DAF   A5 05      LDA $05
3DB1   20 F6 BD   JSR $BDF6
3DB4   90 31      BCC $3DE7
3DB6   98         TYA
3DB7   C9 09      CMP #$09
3DB9   90 02      BCC $3DBD
3DBB   E9 05      SBC #$05
3DBD   20 04 8E   JSR $8E04
3DC0   D2         ???
3DC1   BD 38 BB   LDA $BB38,X
3DC4   38         SEC
3DC5   BB         ???
3DC6   D8         CLD
3DC7   BD D2 BD   LDA $BDD2,X
3DCA   DF         ???
3DCB   BD D5 BD   LDA $BDD5,X
3DCE   38         SEC
3DCF   BB         ???
3DD0   D8         CLD
3DD1   BD A9 00   LDA $00A9,X
3DD4   2C A9 02   BIT $02A9
3DD7   2C A9 03   BIT $03A9
3DDA   85 39      STA $39
3DDC   4C 49 BC   JMP $BC49
3DDF   A2 05      LDX #$05
3DE1   AC EE 03   LDY $03EE
3DE4   20 1E B9   JSR $B91E
3DE7   60         RTS
3DE8   C1 C0      CMP ($C0,X)
3DEA   5F         ???
3DEB   60         RTS
3DEC   55 56      EOR $56,X
3DEE   57         ???
3DEF   58         CLI
3DF0   59 5A 5B   EOR $5B5A,Y
3DF3   5C         ???
3DF4   5D 5E A0   EOR $A05E,X
3DF7   0D D9 E8   ORA $E8D9
3DFA   BD F0 04   LDA $04F0,X
3DFD   88         DEY
3DFE   10 F8      BPL $3DF8
3E00   18         CLC
3E01   60         RTS
3E02   20 1F BE   JSR $BE1F
3E05   A9 01      LDA #$01
3E07   9D EC 03   STA $03EC,X
3E0A   85 FD      STA $FD
3E0C   20 41 BE   JSR $BE41
3E0F   A9 FE      LDA #$FE
3E11   85 9F      STA $9F
3E13   A9 05      LDA #$05
3E15   8D 39 01   STA $0139
3E18   20 27 BC   JSR $BC27
3E1B   AE EE 03   LDX $03EE
3E1E   60         RTS
3E1F   AE EE 03   LDX $03EE
3E22   A4 02      LDY $02
3E24   F0 1A      BEQ $3E40
3E26   98         TYA
3E27   38         SEC
3E28   E9 10      SBC #$10
3E2A   85 02      STA $02
3E2C   A8         TAY
3E2D   B1 06      LDA ($06),Y
3E2F   C9 C2      CMP #$C2
3E31   D0 0D      BNE $3E40
3E33   A9 00      LDA #$00
3E35   91 06      STA ($06),Y
3E37   20 4D 8A   JSR $8A4D
3E3A   AE EE 03   LDX $03EE
3E3D   20 51 BB   JSR $BB51
3E40   60         RTS
3E41   B5 8F      LDA $8F,X
3E43   9D F1 03   STA $03F1,X
3E46   A9 F0      LDA #$F0
3E48   95 60      STA $60,X
3E4A   95 62      STA $62,X
3E4C   A9 FA      LDA #$FA
3E4E   95 A8      STA $A8,X
3E50   A9 FC      LDA #$FC
3E52   95 AA      STA $AA,X
3E54   A9 00      LDA #$00
3E56   9D 3C 04   STA $043C,X
3E59   9D 3E 04   STA $043E,X
3E5C   B5 76      LDA $76,X
3E5E   95 78      STA $78,X
3E60   B5 8F      LDA $8F,X
3E62   95 91      STA $91,X
3E64   B5 D7      LDA $D7,X
3E66   18         CLC
3E67   69 08      ADC #$08
3E69   95 D9      STA $D9,X
3E6B   A9 FA      LDA #$FA
3E6D   95 A8      STA $A8,X
3E6F   60         RTS
3E70   B5 26      LDA $26,X
3E72   F0 5D      BEQ $3ED1
3E74   29 0F      AND #$0F
3E76   48         PHA
3E77   A8         TAY
3E78   8A         TXA
3E79   18         CLC
3E7A   69 09      ADC #$09
3E7C   AA         TAX
3E7D   88         DEY
3E7E   F0 33      BEQ $3EB3
3E80   20 A4 BF   JSR $BFA4
3E83   20 0F BF   JSR $BF0F
3E86   8A         TXA
3E87   18         CLC
3E88   69 02      ADC #$02
3E8A   AA         TAX
3E8B   20 A4 BF   JSR $BFA4
3E8E   20 0F BF   JSR $BF0F
3E91   A6 08      LDX $08
3E93   20 59 F1   JSR $F159
3E96   20 B6 F1   JSR $F1B6
3E99   20 53 EC   JSR $EC53
3E9C   68         PLA
3E9D   B4 BE      LDY $BE,X
3E9F   F0 30      BEQ $3ED1
3EA1   48         PHA
3EA2   A9 F0      LDA #$F0
3EA4   D5 D9      CMP $D9,X
3EA6   B0 02      BCS $3EAA
3EA8   95 D9      STA $D9,X
3EAA   B5 D7      LDA $D7,X
3EAC   C9 F0      CMP #$F0
3EAE   68         PLA
3EAF   90 20      BCC $3ED1
3EB1   B0 1C      BCS $3ECF
3EB3   20 A4 BF   JSR $BFA4
3EB6   A6 08      LDX $08
3EB8   20 59 F1   JSR $F159
3EBB   20 B6 F1   JSR $F1B6
3EBE   20 D1 EB   JSR $EBD1
3EC1   B5 D7      LDA $D7,X
3EC3   29 0F      AND #$0F
3EC5   C9 05      CMP #$05
3EC7   68         PLA
3EC8   B0 07      BCS $3ED1
3ECA   A9 01      LDA #$01
3ECC   9D EC 03   STA $03EC,X
3ECF   A9 00      LDA #$00
3ED1   95 26      STA $26,X
3ED3   60         RTS
3ED4   A2 01      LDX #$01
3ED6   86 08      STX $08
3ED8   AD 01 03   LDA $0301
3EDB   D0 21      BNE $3EFE
3EDD   BD EC 03   LDA $03EC,X
3EE0   F0 1C      BEQ $3EFE
3EE2   BD E6 03   LDA $03E6,X
3EE5   85 06      STA $06
3EE7   A9 05      LDA #$05
3EE9   85 07      STA $07
3EEB   BD E4 03   LDA $03E4,X
3EEE   85 02      STA $02
3EF0   A8         TAY
3EF1   BD E8 03   LDA $03E8,X
3EF4   91 06      STA ($06),Y
3EF6   20 61 8A   JSR $8A61
3EF9   A9 00      LDA #$00
3EFB   9D EC 03   STA $03EC,X
3EFE   CA         DEX
3EFF   10 D5      BPL $3ED6
3F01   60         RTS
3F02   E8         INX
3F03   20 0F BF   JSR $BF0F
3F06   A6 08      LDX $08
3F08   60         RTS
3F09   AD 0E 07   LDA $070E
3F0C   D0 3E      BNE $3F4C
3F0E   AA         TAX
3F0F   B5 57      LDA $57,X
3F11   0A         ASL A
3F12   0A         ASL A
3F13   0A         ASL A
3F14   0A         ASL A
3F15   85 01      STA $01
3F17   B5 57      LDA $57,X
3F19   4A         LSR A
3F1A   4A         LSR A
3F1B   4A         LSR A
3F1C   4A         LSR A
3F1D   C9 08      CMP #$08
3F1F   90 02      BCC $3F23
3F21   09 F0      ORA #$F0
3F23   85 00      STA $00
3F25   A0 00      LDY #$00
3F27   C9 00      CMP #$00
3F29   10 01      BPL $3F2C
3F2B   88         DEY
3F2C   84 02      STY $02
3F2E   BD 00 04   LDA $0400,X
3F31   18         CLC
3F32   65 01      ADC $01
3F34   9D 00 04   STA $0400,X
3F37   A9 00      LDA #$00
3F39   2A         ROL A
3F3A   48         PHA
3F3B   6A         ROR A
3F3C   B5 86      LDA $86,X
3F3E   65 00      ADC $00
3F40   95 86      STA $86,X
3F42   B5 6D      LDA $6D,X
3F44   65 02      ADC $02
3F46   95 6D      STA $6D,X
3F48   68         PLA
3F49   18         CLC
3F4A   65 00      ADC $00
3F4C   60         RTS
3F4D   A2 00      LDX #$00
3F4F   AD 47 07   LDA $0747
3F52   D0 05      BNE $3F59
3F54   AD 0E 07   LDA $070E
3F57   D0 F3      BNE $3F4C
3F59   AD 09 07   LDA $0709
3F5C   85 00      STA $00
3F5E   A9 04      LDA #$04
3F60   4C AD BF   JMP $BFAD
3F63   A0 3D      LDY #$3D
3F65   B5 1E      LDA $1E,X
3F67   C9 05      CMP #$05
3F69   D0 02      BNE $3F6D
3F6B   A0 20      LDY #$20
3F6D   4C 94 BF   JMP $BF94
3F70   A0 00      LDY #$00
3F72   4C 77 BF   JMP $BF77
3F75   A0 01      LDY #$01
3F77   E8         INX
3F78   A9 03      LDA #$03
3F7A   85 00      STA $00
3F7C   A9 06      LDA #$06
3F7E   85 01      STA $01
3F80   A9 02      LDA #$02
3F82   85 02      STA $02
3F84   98         TYA
3F85   4C D1 BF   JMP $BFD1
3F88   A0 7F      LDY #$7F
3F8A   D0 02      BNE $3F8E
3F8C   A0 0F      LDY #$0F
3F8E   A9 02      LDA #$02
3F90   D0 04      BNE $3F96
3F92   A0 1C      LDY #$1C
3F94   A9 03      LDA #$03
3F96   84 00      STY $00
3F98   E8         INX
3F99   20 AD BF   JSR $BFAD
3F9C   A6 08      LDX $08
3F9E   60         RTS
3F9F   06 08      ASL $08
3FA1   A0 00      LDY #$00
3FA3   2C A0 01   BIT $01A0
3FA6   A9 50      LDA #$50
3FA8   85 00      STA $00
3FAA   B9 9F BF   LDA $BF9F,Y
3FAD   85 02      STA $02
3FAF   A9 00      LDA #$00
3FB1   4C D7 BF   JMP $BFD7
3FB4   A9 00      LDA #$00
3FB6   2C A9 01   BIT $01A9
3FB9   48         PHA
3FBA   B4 16      LDY $16,X
3FBC   E8         INX
3FBD   A9 05      LDA #$05
3FBF   C0 29      CPY #$29
3FC1   D0 02      BNE $3FC5
3FC3   A9 09      LDA #$09
3FC5   85 00      STA $00
3FC7   A9 0A      LDA #$0A
3FC9   85 01      STA $01
3FCB   A9 03      LDA #$03
3FCD   85 02      STA $02
3FCF   68         PLA
3FD0   A8         TAY
3FD1   20 D7 BF   JSR $BFD7
3FD4   A6 08      LDX $08
3FD6   60         RTS
3FD7   48         PHA
3FD8   BD 16 04   LDA $0416,X
3FDB   18         CLC
3FDC   7D 33 04   ADC $0433,X
3FDF   9D 16 04   STA $0416,X
3FE2   A0 00      LDY #$00
3FE4   B5 9F      LDA $9F,X
3FE6   10 01      BPL $3FE9
3FE8   88         DEY
3FE9   84 07      STY $07
3FEB   75 CE      ADC $CE,X
3FED   95 CE      STA $CE,X
3FEF   B5 B5      LDA $B5,X
3FF1   65 07      ADC $07
3FF3   95 B5      STA $B5,X
3FF5   BD 33 04   LDA $0433,X
3FF8   18         CLC
3FF9   65 00      ADC $00
3FFB   9D 33 04   STA $0433,X
3FFE   B5 9F      LDA $9F,X
4000   69 00      ADC #$00
4002   95 9F      STA $9F,X
4004   C5 02      CMP $02
4006   30 10      BMI $4018
4008   BD 33 04   LDA $0433,X
400B   C9 80      CMP #$80
400D   90 09      BCC $4018
400F   A5 02      LDA $02
4011   95 9F      STA $9F,X
4013   A9 00      LDA #$00
4015   9D 33 04   STA $0433,X
4018   68         PLA
4019   F0 2B      BEQ $4046
401B   A5 02      LDA $02
401D   49 FF      EOR #$FF
401F   A8         TAY
4020   C8         INY
4021   84 07      STY $07
4023   BD 33 04   LDA $0433,X
4026   38         SEC
4027   E5 01      SBC $01
4029   9D 33 04   STA $0433,X
402C   B5 9F      LDA $9F,X
402E   E9 00      SBC #$00
4030   95 9F      STA $9F,X
4032   C5 07      CMP $07
4034   10 10      BPL $4046
4036   BD 33 04   LDA $0433,X
4039   C9 80      CMP #$80
403B   B0 09      BCS $4046
403D   A5 07      LDA $07
403F   95 9F      STA $9F,X
4041   A9 FF      LDA #$FF
4043   9D 33 04   STA $0433,X
4046   60         RTS
4047   B5 0F      LDA $0F,X
4049   48         PHA
404A   0A         ASL A
404B   B0 12      BCS $405F
404D   68         PLA
404E   F0 03      BEQ $4053
4050   4C 82 C8   JMP $C882
4053   AD 1F 07   LDA $071F
4056   29 07      AND #$07
4058   C9 07      CMP #$07
405A   F0 0E      BEQ $406A
405C   4C CC C0   JMP $C0CC
405F   68         PLA
4060   29 0F      AND #$0F
4062   A8         TAY
4063   B9 0F 00   LDA $000F,Y
4066   D0 02      BNE $406A
4068   95 0F      STA $0F,X
406A   60         RTS
406B   03         ???
406C   03         ???
406D   06 06      ASL $06
406F   06 06      ASL $06
4071   06 06      ASL $06
4073   07         ???
4074   07         ???
4075   07         ???
4076   05 09      ORA $09
4078   04         ???
4079   05 06      ORA $06
407B   08         PHP
407C   09 0A      ORA #$0A
407E   06 0B      ASL $0B
4080   10 40      BPL $40C2
4082   B0 B0      BCS $4034
4084   80         ???
4085   40         RTI
4086   40         RTI
4087   80         ???
4088   40         RTI
4089   F0 F0      BEQ $407B
408B   F0 A5      BEQ $4032
408D   6D 38 E9   ADC $E938
4090   04         ???
4091   85 6D      STA $6D
4093   AD 25 07   LDA $0725
4096   38         SEC
4097   E9 04      SBC #$04
4099   8D 25 07   STA $0725
409C   AD 1A 07   LDA $071A
409F   38         SEC
40A0   E9 04      SBC #$04
40A2   8D 1A 07   STA $071A
40A5   AD 1B 07   LDA $071B
40A8   38         SEC
40A9   E9 04      SBC #$04
40AB   8D 1B 07   STA $071B
40AE   AD 2A 07   LDA $072A
40B1   38         SEC
40B2   E9 04      SBC #$04
40B4   8D 2A 07   STA $072A
40B7   A9 00      LDA #$00
40B9   8D 3B 07   STA $073B
40BC   8D 2B 07   STA $072B
40BF   8D 39 07   STA $0739
40C2   8D 3A 07   STA $073A
40C5   B9 F8 9B   LDA $9BF8,Y
40C8   8D 2C 07   STA $072C
40CB   60         RTS
40CC   AD 45 07   LDA $0745
40CF   F0 5E      BEQ $412F
40D1   AD 26 07   LDA $0726
40D4   D0 59      BNE $412F
40D6   A0 0B      LDY #$0B
40D8   88         DEY
40D9   30 54      BMI $412F
40DB   AD 5F 07   LDA $075F
40DE   D9 6B C0   CMP $C06B,Y
40E1   D0 F5      BNE $40D8
40E3   AD 25 07   LDA $0725
40E6   D9 76 C0   CMP $C076,Y
40E9   D0 ED      BNE $40D8
40EB   A5 CE      LDA $CE
40ED   D9 81 C0   CMP $C081,Y
40F0   D0 23      BNE $4115
40F2   A5 1D      LDA $1D
40F4   C9 00      CMP #$00
40F6   D0 1D      BNE $4115
40F8   AD 5F 07   LDA $075F
40FB   C9 06      CMP #$06
40FD   D0 23      BNE $4122
40FF   EE D9 06   INC $06D9
4102   EE DA 06   INC $06DA
4105   AD DA 06   LDA $06DA
4108   C9 03      CMP #$03
410A   D0 1E      BNE $412A
410C   AD D9 06   LDA $06D9
410F   C9 03      CMP #$03
4111   F0 0F      BEQ $4122
4113   D0 07      BNE $411C
4115   AD 5F 07   LDA $075F
4118   C9 06      CMP #$06
411A   F0 E6      BEQ $4102
411C   20 8C C0   JSR $C08C
411F   20 71 D0   JSR $D071
4122   A9 00      LDA #$00
4124   8D DA 06   STA $06DA
4127   8D D9 06   STA $06D9
412A   A9 00      LDA #$00
412C   8D 45 07   STA $0745
412F   AD CD 06   LDA $06CD
4132   F0 10      BEQ $4144
4134   95 16      STA $16,X
4136   A9 01      LDA #$01
4138   95 0F      STA $0F,X
413A   A9 00      LDA #$00
413C   95 1E      STA $1E,X
413E   8D CD 06   STA $06CD
4141   4C 26 C2   JMP $C226
4144   AC 39 07   LDY $0739
4147   B1 E9      LDA ($E9),Y
4149   C9 FF      CMP #$FF
414B   D0 03      BNE $4150
414D   4C 16 C2   JMP $C216
4150   29 0F      AND #$0F
4152   C9 0E      CMP #$0E
4154   F0 0E      BEQ $4164
4156   E0 05      CPX #$05
4158   90 0A      BCC $4164
415A   C8         INY
415B   B1 E9      LDA ($E9),Y
415D   29 3F      AND #$3F
415F   C9 2E      CMP #$2E
4161   F0 01      BEQ $4164
4163   60         RTS
4164   AD 1D 07   LDA $071D
4167   18         CLC
4168   69 30      ADC #$30
416A   29 F0      AND #$F0
416C   85 07      STA $07
416E   AD 1B 07   LDA $071B
4171   69 00      ADC #$00
4173   85 06      STA $06
4175   AC 39 07   LDY $0739
4178   C8         INY
4179   B1 E9      LDA ($E9),Y
417B   0A         ASL A
417C   90 0B      BCC $4189
417E   AD 3B 07   LDA $073B
4181   D0 06      BNE $4189
4183   EE 3B 07   INC $073B
4186   EE 3A 07   INC $073A
4189   88         DEY
418A   B1 E9      LDA ($E9),Y
418C   29 0F      AND #$0F
418E   C9 0F      CMP #$0F
4190   D0 19      BNE $41AB
4192   AD 3B 07   LDA $073B
4195   D0 14      BNE $41AB
4197   C8         INY
4198   B1 E9      LDA ($E9),Y
419A   29 3F      AND #$3F
419C   8D 3A 07   STA $073A
419F   EE 39 07   INC $0739
41A2   EE 39 07   INC $0739
41A5   EE 3B 07   INC $073B
41A8   4C CC C0   JMP $C0CC
41AB   AD 3A 07   LDA $073A
41AE   95 6E      STA $6E,X
41B0   B1 E9      LDA ($E9),Y
41B2   29 F0      AND #$F0
41B4   95 87      STA $87,X
41B6   CD 1D 07   CMP $071D
41B9   B5 6E      LDA $6E,X
41BB   ED 1B 07   SBC $071B
41BE   B0 0B      BCS $41CB
41C0   B1 E9      LDA ($E9),Y
41C2   29 0F      AND #$0F
41C4   C9 0E      CMP #$0E
41C6   F0 69      BEQ $4231
41C8   4C 50 C2   JMP $C250
41CB   A5 07      LDA $07
41CD   D5 87      CMP $87,X
41CF   A5 06      LDA $06
41D1   F5 6E      SBC $6E,X
41D3   90 41      BCC $4216
41D5   A9 01      LDA #$01
41D7   95 B6      STA $B6,X
41D9   B1 E9      LDA ($E9),Y
41DB   0A         ASL A
41DC   0A         ASL A
41DD   0A         ASL A
41DE   0A         ASL A
41DF   95 CF      STA $CF,X
41E1   C9 E0      CMP #$E0
41E3   F0 4C      BEQ $4231
41E5   C8         INY
41E6   B1 E9      LDA ($E9),Y
41E8   29 40      AND #$40
41EA   F0 05      BEQ $41F1
41EC   AD CC 06   LDA $06CC
41EF   F0 6D      BEQ $425E
41F1   B1 E9      LDA ($E9),Y
41F3   29 3F      AND #$3F
41F5   C9 37      CMP #$37
41F7   90 04      BCC $41FD
41F9   C9 3F      CMP #$3F
41FB   90 31      BCC $422E
41FD   C9 06      CMP #$06
41FF   D0 07      BNE $4208
4201   AC 6A 07   LDY $076A
4204   F0 02      BEQ $4208
4206   A9 02      LDA #$02
4208   95 16      STA $16,X
420A   A9 01      LDA #$01
420C   95 0F      STA $0F,X
420E   20 26 C2   JSR $C226
4211   B5 0F      LDA $0F,X
4213   D0 49      BNE $425E
4215   60         RTS
4216   AD CB 06   LDA $06CB
4219   D0 09      BNE $4224
421B   AD 98 03   LDA $0398
421E   C9 01      CMP #$01
4220   D0 0B      BNE $422D
4222   A9 2F      LDA #$2F
4224   95 16      STA $16,X
4226   A9 00      LDA #$00
4228   95 1E      STA $1E,X
422A   20 6C C2   JSR $C26C
422D   60         RTS
422E   4C 1B C7   JMP $C71B
4231   C8         INY
4232   C8         INY
4233   B1 E9      LDA ($E9),Y
4235   4A         LSR A
4236   4A         LSR A
4237   4A         LSR A
4238   4A         LSR A
4239   4A         LSR A
423A   CD 5F 07   CMP $075F
423D   D0 0E      BNE $424D
423F   88         DEY
4240   B1 E9      LDA ($E9),Y
4242   8D 50 07   STA $0750
4245   C8         INY
4246   B1 E9      LDA ($E9),Y
4248   29 1F      AND #$1F
424A   8D 51 07   STA $0751
424D   4C 5B C2   JMP $C25B
4250   AC 39 07   LDY $0739
4253   B1 E9      LDA ($E9),Y
4255   29 0F      AND #$0F
4257   C9 0E      CMP #$0E
4259   D0 03      BNE $425E
425B   EE 39 07   INC $0739
425E   EE 39 07   INC $0739
4261   EE 39 07   INC $0739
4264   A9 00      LDA #$00
4266   8D 3B 07   STA $073B
4269   A6 08      LDX $08
426B   60         RTS
426C   B5 16      LDA $16,X
426E   C9 15      CMP #$15
4270   B0 0D      BCS $427F
4272   A8         TAY
4273   B5 CF      LDA $CF,X
4275   69 08      ADC #$08
4277   95 CF      STA $CF,X
4279   A9 01      LDA #$01
427B   9D D8 03   STA $03D8,X
427E   98         TYA
427F   20 04 8E   JSR $8E04
4282   0E C3 0E   ASL $0EC3
4285   C3         ???
4286   0E C3 1E   ASL $1EC3
4289   C3         ???
428A   F0 C2      BEQ $424E
428C   28         PLP
428D   C3         ???
428E   F1 C2      SBC ($C2),Y
4290   42         ???
4291   C3         ???
4292   6B         ???
4293   C3         ???
4294   F0 C2      BEQ $4258
4296   75 C3      ADC $C3,X
4298   75 C3      ADC $C3,X
429A   F7         ???
429B   C2         ???
429C   87         ???
429D   C7         ???
429E   D1 C7      CMP ($C7),Y
42A0   4A         LSR A
42A1   C3         ???
42A2   3D C3 85   AND $85C3,X
42A5   C3         ???
42A6   A0 C7      LDY #$C7
42A8   F0 C2      BEQ $426C
42AA   A0 C7      LDY #$C7
42AC   A0 C7      LDY #$C7
42AE   A0 C7      LDY #$C7
42B0   A0 C7      LDY #$C7
42B2   B8         CLV
42B3   C7         ???
42B4   F0 C2      BEQ $4278
42B6   F0 C2      BEQ $427A
42B8   5C         ???
42B9   C4 5C      CPY $5C
42BB   C4 5C      CPY $5C
42BD   C4 5C      CPY $5C
42BF   C4 59      CPY $59
42C1   C4 F0      CPY $F0
42C3   C2         ???
42C4   F0 C2      BEQ $4288
42C6   F0 C2      BEQ $428A
42C8   F0 C2      BEQ $428C
42CA   DF         ???
42CB   C7         ???
42CC   12         ???
42CD   C8         INY
42CE   3F         ???
42CF   C8         INY
42D0   45 C8      EOR $C8
42D2   0B         ???
42D3   C8         INY
42D4   03         ???
42D5   C8         INY
42D6   0B         ???
42D7   C8         INY
42D8   4B         ???
42D9   C8         INY
42DA   57         ???
42DB   C8         INY
42DC   49 C5      EOR #$C5
42DE   60         RTS
42DF   BC 1E B9   LDY $B91E,X
42E2   F0 C2      BEQ $42A6
42E4   F0 C2      BEQ $42A8
42E6   F0 C2      BEQ $42AA
42E8   F0 C2      BEQ $42AC
42EA   F0 C2      BEQ $42AE
42EC   07         ???
42ED   C3         ???
42EE   81 C8      STA ($C8,X)
42F0   60         RTS
42F1   20 0E C3   JSR $C30E
42F4   4C 46 C3   JMP $C346
42F7   A9 02      LDA #$02
42F9   95 B6      STA $B6,X
42FB   95 CF      STA $CF,X
42FD   4A         LSR A
42FE   9D 96 07   STA $0796,X
4301   4A         LSR A
4302   95 1E      STA $1E,X
4304   4C 46 C3   JMP $C346
4307   A9 B8      LDA #$B8
4309   95 CF      STA $CF,X
430B   60         RTS
430C   F8         SED
430D   F4         ???
430E   A0 01      LDY #$01
4310   AD 6A 07   LDA $076A
4313   D0 01      BNE $4316
4315   88         DEY
4316   B9 0C C3   LDA $C30C,Y
4319   95 58      STA $58,X
431B   4C 5A C3   JMP $C35A
431E   20 0E C3   JSR $C30E
4321   A9 01      LDA #$01
4323   95 1E      STA $1E,X
4325   60         RTS
4326   80         ???
4327   50 A9      BVC $42D2
4329   00         BRK
432A   9D A2 03   STA $03A2,X
432D   95 58      STA $58,X
432F   AC CC 06   LDY $06CC
4332   B9 26 C3   LDA $C326,Y
4335   9D 96 07   STA $0796,X
4338   A9 0B      LDA #$0B
433A   4C 5C C3   JMP $C35C
433D   A9 00      LDA #$00
433F   4C 19 C3   JMP $C319
4342   A9 00      LDA #$00
4344   95 58      STA $58,X
4346   A9 09      LDA #$09
4348   D0 12      BNE $435C
434A   A0 30      LDY #$30
434C   B5 CF      LDA $CF,X
434E   9D 01 04   STA $0401,X
4351   10 02      BPL $4355
4353   A0 E0      LDY #$E0
4355   98         TYA
4356   75 CF      ADC $CF,X
4358   95 58      STA $58,X
435A   A9 03      LDA #$03
435C   9D 9A 04   STA $049A,X
435F   A9 02      LDA #$02
4361   95 46      STA $46,X
4363   A9 00      LDA #$00
4365   95 A0      STA $A0,X
4367   9D 34 04   STA $0434,X
436A   60         RTS
436B   A9 02      LDA #$02
436D   95 46      STA $46,X
436F   A9 09      LDA #$09
4371   9D 9A 04   STA $049A,X
4374   60         RTS
4375   20 46 C3   JSR $C346
4378   BD A7 07   LDA $07A7,X
437B   29 10      AND #$10
437D   95 58      STA $58,X
437F   B5 CF      LDA $CF,X
4381   9D 34 04   STA $0434,X
4384   60         RTS
4385   AD CB 06   LDA $06CB
4388   D0 0B      BNE $4395
438A   A9 00      LDA #$00
438C   8D D1 06   STA $06D1
438F   20 3D C3   JSR $C33D
4392   4C D9 C7   JMP $C7D9
4395   4C 98 C9   JMP $C998
4398   26 2C      ROL $2C
439A   32         ???
439B   38         SEC
439C   20 22 24   JSR $2422
439F   26 13      ROL $13
43A1   14         ???
43A2   15 16      ORA $16,X
43A4   AD 8F 07   LDA $078F
43A7   D0 3C      BNE $43E5
43A9   E0 05      CPX #$05
43AB   B0 38      BCS $43E5
43AD   A9 80      LDA #$80
43AF   8D 8F 07   STA $078F
43B2   A0 04      LDY #$04
43B4   B9 16 00   LDA $0016,Y
43B7   C9 11      CMP #$11
43B9   F0 2B      BEQ $43E6
43BB   88         DEY
43BC   10 F6      BPL $43B4
43BE   EE D1 06   INC $06D1
43C1   AD D1 06   LDA $06D1
43C4   C9 07      CMP #$07
43C6   90 1D      BCC $43E5
43C8   A2 04      LDX #$04
43CA   B5 0F      LDA $0F,X
43CC   F0 05      BEQ $43D3
43CE   CA         DEX
43CF   10 F9      BPL $43CA
43D1   30 10      BMI $43E3
43D3   A9 00      LDA #$00
43D5   95 1E      STA $1E,X
43D7   A9 11      LDA #$11
43D9   95 16      STA $16,X
43DB   20 8A C3   JSR $C38A
43DE   A9 20      LDA #$20
43E0   20 D8 C5   JSR $C5D8
43E3   A6 08      LDX $08
43E5   60         RTS
43E6   A5 CE      LDA $CE
43E8   C9 2C      CMP #$2C
43EA   90 F9      BCC $43E5
43EC   B9 1E 00   LDA $001E,Y
43EF   D0 F4      BNE $43E5
43F1   B9 6E 00   LDA $006E,Y
43F4   95 6E      STA $6E,X
43F6   B9 87 00   LDA $0087,Y
43F9   95 87      STA $87,X
43FB   A9 01      LDA #$01
43FD   95 B6      STA $B6,X
43FF   B9 CF 00   LDA $00CF,Y
4402   38         SEC
4403   E9 08      SBC #$08
4405   95 CF      STA $CF,X
4407   BD A7 07   LDA $07A7,X
440A   29 03      AND #$03
440C   A8         TAY
440D   A2 02      LDX #$02
440F   B9 98 C3   LDA $C398,Y
4412   95 01      STA $01,X
4414   C8         INY
4415   C8         INY
4416   C8         INY
4417   C8         INY
4418   CA         DEX
4419   10 F4      BPL $440F
441B   A6 08      LDX $08
441D   20 6C CF   JSR $CF6C
4420   A4 57      LDY $57
4422   C0 08      CPY #$08
4424   B0 0E      BCS $4434
4426   A8         TAY
4427   BD A8 07   LDA $07A8,X
442A   29 03      AND #$03
442C   F0 05      BEQ $4433
442E   98         TYA
442F   49 FF      EOR #$FF
4431   A8         TAY
4432   C8         INY
4433   98         TYA
4434   20 46 C3   JSR $C346
4437   A0 02      LDY #$02
4439   95 58      STA $58,X
443B   C9 00      CMP #$00
443D   30 01      BMI $4440
443F   88         DEY
4440   94 46      STY $46,X
4442   A9 FD      LDA #$FD
4444   95 A0      STA $A0,X
4446   A9 01      LDA #$01
4448   95 0F      STA $0F,X
444A   A9 05      LDA #$05
444C   95 1E      STA $1E,X
444E   60         RTS
444F   28         PLP
4450   38         SEC
4451   28         PLP
4452   38         SEC
4453   28         PLP
4454   00         BRK
4455   00         BRK
4456   10 10      BPL $4468
4458   00         BRK
4459   20 75 C5   JSR $C575
445C   A9 00      LDA #$00
445E   95 58      STA $58,X
4460   B5 16      LDA $16,X
4462   38         SEC
4463   E9 1B      SBC #$1B
4465   A8         TAY
4466   B9 4F C4   LDA $C44F,Y
4469   9D 88 03   STA $0388,X
446C   B9 54 C4   LDA $C454,Y
446F   95 34      STA $34,X
4471   B5 CF      LDA $CF,X
4473   18         CLC
4474   69 04      ADC #$04
4476   95 CF      STA $CF,X
4478   B5 87      LDA $87,X
447A   18         CLC
447B   69 04      ADC #$04
447D   95 87      STA $87,X
447F   B5 6E      LDA $6E,X
4481   69 00      ADC #$00
4483   95 6E      STA $6E,X
4485   4C D9 C7   JMP $C7D9
4488   80         ???
4489   30 40      BMI $44CB
448B   80         ???
448C   30 50      BMI $44DE
448E   50 70      BVC $4500
4490   20 40 80   JSR $8040
4493   A0 70      LDY #$70
4495   40         RTI
4496   90 68      BCC $4500
4498   0E 05 06   ASL $0605
449B   0E 1C 20   ASL $201C
449E   10 0C      BPL $44AC
44A0   1E 22 18   ASL $1822,X
44A3   14         ???
44A4   10 60      BPL $4506
44A6   20 48 AD   JSR $AD48
44A9   8F         ???
44AA   07         ???
44AB   D0 A1      BNE $444E
44AD   20 46 C3   JSR $C346
44B0   BD A8 07   LDA $07A8,X
44B3   29 03      AND #$03
44B5   A8         TAY
44B6   B9 A4 C4   LDA $C4A4,Y
44B9   8D 8F 07   STA $078F
44BC   A0 03      LDY #$03
44BE   AD CC 06   LDA $06CC
44C1   F0 01      BEQ $44C4
44C3   C8         INY
44C4   84 00      STY $00
44C6   E4 00      CPX $00
44C8   B0 84      BCS $444E
44CA   BD A7 07   LDA $07A7,X
44CD   29 03      AND #$03
44CF   85 00      STA $00
44D1   85 01      STA $01
44D3   A9 FB      LDA #$FB
44D5   95 A0      STA $A0,X
44D7   A9 00      LDA #$00
44D9   A4 57      LDY $57
44DB   F0 07      BEQ $44E4
44DD   A9 04      LDA #$04
44DF   C0 19      CPY #$19
44E1   90 01      BCC $44E4
44E3   0A         ASL A
44E4   48         PHA
44E5   18         CLC
44E6   65 00      ADC $00
44E8   85 00      STA $00
44EA   BD A8 07   LDA $07A8,X
44ED   29 03      AND #$03
44EF   F0 07      BEQ $44F8
44F1   BD A9 07   LDA $07A9,X
44F4   29 0F      AND #$0F
44F6   85 00      STA $00
44F8   68         PLA
44F9   18         CLC
44FA   65 01      ADC $01
44FC   A8         TAY
44FD   B9 98 C4   LDA $C498,Y
4500   95 58      STA $58,X
4502   A9 01      LDA #$01
4504   95 46      STA $46,X
4506   A5 57      LDA $57
4508   D0 12      BNE $451C
450A   A4 00      LDY $00
450C   98         TYA
450D   29 02      AND #$02
450F   F0 0B      BEQ $451C
4511   B5 58      LDA $58,X
4513   49 FF      EOR #$FF
4515   18         CLC
4516   69 01      ADC #$01
4518   95 58      STA $58,X
451A   F6 46      INC $46,X
451C   98         TYA
451D   29 02      AND #$02
451F   F0 0F      BEQ $4530
4521   A5 86      LDA $86
4523   18         CLC
4524   79 88 C4   ADC $C488,Y
4527   95 87      STA $87,X
4529   A5 6D      LDA $6D
452B   69 00      ADC #$00
452D   4C 3C C5   JMP $C53C
4530   A5 86      LDA $86
4532   38         SEC
4533   F9 88 C4   SBC $C488,Y
4536   95 87      STA $87,X
4538   A5 6D      LDA $6D
453A   E9 00      SBC #$00
453C   95 6E      STA $6E,X
453E   A9 01      LDA #$01
4540   95 0F      STA $0F,X
4542   95 B6      STA $B6,X
4544   A9 F8      LDA #$F8
4546   95 CF      STA $CF,X
4548   60         RTS
4549   20 75 C5   JSR $C575
454C   8E 68 03   STX $0368
454F   A9 00      LDA #$00
4551   8D 63 03   STA $0363
4554   8D 69 03   STA $0369
4557   B5 87      LDA $87,X
4559   8D 66 03   STA $0366
455C   A9 DF      LDA #$DF
455E   8D 90 07   STA $0790
4561   95 46      STA $46,X
4563   A9 20      LDA #$20
4565   8D 64 03   STA $0364
4568   9D 8A 07   STA $078A,X
456B   A9 05      LDA #$05
456D   8D 83 04   STA $0483
4570   4A         LSR A
4571   8D 65 03   STA $0365
4574   60         RTS
4575   A0 FF      LDY #$FF
4577   C8         INY
4578   B9 0F 00   LDA $000F,Y
457B   D0 FA      BNE $4577
457D   8C CF 06   STY $06CF
4580   8A         TXA
4581   09 80      ORA #$80
4583   99 0F 00   STA $000F,Y
4586   B5 6E      LDA $6E,X
4588   99 6E 00   STA $006E,Y
458B   B5 87      LDA $87,X
458D   99 87 00   STA $0087,Y
4590   A9 01      LDA #$01
4592   95 0F      STA $0F,X
4594   99 B6 00   STA $00B6,Y
4597   B5 CF      LDA $CF,X
4599   99 CF 00   STA $00CF,Y
459C   60         RTS
459D   90 80      BCC $451F
459F   70 90      BVS $4531
45A1   FF         ???
45A2   01 AD      ORA ($AD,X)
45A4   8F         ???
45A5   07         ???
45A6   D0 F4      BNE $459C
45A8   9D 34 04   STA $0434,X
45AB   A5 FD      LDA $FD
45AD   09 02      ORA #$02
45AF   85 FD      STA $FD
45B1   AC 68 03   LDY $0368
45B4   B9 16 00   LDA $0016,Y
45B7   C9 2D      CMP #$2D
45B9   F0 31      BEQ $45EC
45BB   20 D9 D1   JSR $D1D9
45BE   18         CLC
45BF   69 20      ADC #$20
45C1   AC CC 06   LDY $06CC
45C4   F0 03      BEQ $45C9
45C6   38         SEC
45C7   E9 10      SBC #$10
45C9   8D 8F 07   STA $078F
45CC   BD A7 07   LDA $07A7,X
45CF   29 03      AND #$03
45D1   9D 17 04   STA $0417,X
45D4   A8         TAY
45D5   B9 9D C5   LDA $C59D,Y
45D8   95 CF      STA $CF,X
45DA   AD 1D 07   LDA $071D
45DD   18         CLC
45DE   69 20      ADC #$20
45E0   95 87      STA $87,X
45E2   AD 1B 07   LDA $071B
45E5   69 00      ADC #$00
45E7   95 6E      STA $6E,X
45E9   4C 1F C6   JMP $C61F
45EC   B9 87 00   LDA $0087,Y
45EF   38         SEC
45F0   E9 0E      SBC #$0E
45F2   95 87      STA $87,X
45F4   B9 6E 00   LDA $006E,Y
45F7   95 6E      STA $6E,X
45F9   B9 CF 00   LDA $00CF,Y
45FC   18         CLC
45FD   69 08      ADC #$08
45FF   95 CF      STA $CF,X
4601   BD A7 07   LDA $07A7,X
4604   29 03      AND #$03
4606   9D 17 04   STA $0417,X
4609   A8         TAY
460A   B9 9D C5   LDA $C59D,Y
460D   A0 00      LDY #$00
460F   D5 CF      CMP $CF,X
4611   90 01      BCC $4614
4613   C8         INY
4614   B9 A1 C5   LDA $C5A1,Y
4617   9D 34 04   STA $0434,X
461A   A9 00      LDA #$00
461C   8D CB 06   STA $06CB
461F   A9 08      LDA #$08
4621   9D 9A 04   STA $049A,X
4624   A9 01      LDA #$01
4626   95 B6      STA $B6,X
4628   95 0F      STA $0F,X
462A   4A         LSR A
462B   9D 01 04   STA $0401,X
462E   95 1E      STA $1E,X
4630   60         RTS
4631   00         BRK
4632   30 60      BMI $4694
4634   60         RTS
4635   00         BRK
4636   20 60 40   JSR $4060
4639   70 40      BVS $467B
463B   60         RTS
463C   30 AD      BMI $45EB
463E   8F         ???
463F   07         ???
4640   D0 47      BNE $4689
4642   A9 20      LDA #$20
4644   8D 8F 07   STA $078F
4647   CE D7 06   DEC $06D7
464A   A0 06      LDY #$06
464C   88         DEY
464D   B9 16 00   LDA $0016,Y
4650   C9 31      CMP #$31
4652   D0 F8      BNE $464C
4654   B9 87 00   LDA $0087,Y
4657   38         SEC
4658   E9 30      SBC #$30
465A   48         PHA
465B   B9 6E 00   LDA $006E,Y
465E   E9 00      SBC #$00
4660   85 00      STA $00
4662   AD D7 06   LDA $06D7
4665   18         CLC
4666   79 1E 00   ADC $001E,Y
4669   A8         TAY
466A   68         PLA
466B   18         CLC
466C   79 31 C6   ADC $C631,Y
466F   95 87      STA $87,X
4671   A5 00      LDA $00
4673   69 00      ADC #$00
4675   95 6E      STA $6E,X
4677   B9 37 C6   LDA $C637,Y
467A   95 CF      STA $CF,X
467C   A9 01      LDA #$01
467E   95 B6      STA $B6,X
4680   95 0F      STA $0F,X
4682   4A         LSR A
4683   95 58      STA $58,X
4685   A9 08      LDA #$08
4687   95 A0      STA $A0,X
4689   60         RTS
468A   01 02      ORA ($02,X)
468C   04         ???
468D   08         PHP
468E   10 20      BPL $46B0
4690   40         RTI
4691   80         ???
4692   40         RTI
4693   30 90      BMI $4625
4695   50 20      BVC $46B7
4697   60         RTS
4698   A0 70      LDY #$70
469A   0A         ASL A
469B   0B         ???
469C   AD 8F 07   LDA $078F
469F   D0 6F      BNE $4710
46A1   AD 4E 07   LDA $074E
46A4   D0 57      BNE $46FD
46A6   E0 03      CPX #$03
46A8   B0 66      BCS $4710
46AA   A0 00      LDY #$00
46AC   BD A7 07   LDA $07A7,X
46AF   C9 AA      CMP #$AA
46B1   90 01      BCC $46B4
46B3   C8         INY
46B4   AD 5F 07   LDA $075F
46B7   C9 01      CMP #$01
46B9   F0 01      BEQ $46BC
46BB   C8         INY
46BC   98         TYA
46BD   29 01      AND #$01
46BF   A8         TAY
46C0   B9 9A C6   LDA $C69A,Y
46C3   95 16      STA $16,X
46C5   AD DD 06   LDA $06DD
46C8   C9 FF      CMP #$FF
46CA   D0 05      BNE $46D1
46CC   A9 00      LDA #$00
46CE   8D DD 06   STA $06DD
46D1   BD A7 07   LDA $07A7,X
46D4   29 07      AND #$07
46D6   A8         TAY
46D7   B9 8A C6   LDA $C68A,Y
46DA   2C DD 06   BIT $06DD
46DD   F0 07      BEQ $46E6
46DF   C8         INY
46E0   98         TYA
46E1   29 07      AND #$07
46E3   4C D6 C6   JMP $C6D6
46E6   0D DD 06   ORA $06DD
46E9   8D DD 06   STA $06DD
46EC   B9 92 C6   LDA $C692,Y
46EF   20 D8 C5   JSR $C5D8
46F2   9D 17 04   STA $0417,X
46F5   A9 20      LDA #$20
46F7   8D 8F 07   STA $078F
46FA   4C 6C C2   JMP $C26C
46FD   A0 FF      LDY #$FF
46FF   C8         INY
4700   C0 05      CPY #$05
4702   B0 0D      BCS $4711
4704   B9 0F 00   LDA $000F,Y
4707   F0 F6      BEQ $46FF
4709   B9 16 00   LDA $0016,Y
470C   C9 08      CMP #$08
470E   D0 EF      BNE $46FF
4710   60         RTS
4711   A5 FE      LDA $FE
4713   09 08      ORA #$08
4715   85 FE      STA $FE
4717   A9 08      LDA #$08
4719   D0 A8      BNE $46C3
471B   A0 00      LDY #$00
471D   38         SEC
471E   E9 37      SBC #$37
4720   48         PHA
4721   C9 04      CMP #$04
4723   B0 0B      BCS $4730
4725   48         PHA
4726   A0 06      LDY #$06
4728   AD 6A 07   LDA $076A
472B   F0 02      BEQ $472F
472D   A0 02      LDY #$02
472F   68         PLA
4730   84 01      STY $01
4732   A0 B0      LDY #$B0
4734   29 02      AND #$02
4736   F0 02      BEQ $473A
4738   A0 70      LDY #$70
473A   84 00      STY $00
473C   AD 1B 07   LDA $071B
473F   85 02      STA $02
4741   AD 1D 07   LDA $071D
4744   85 03      STA $03
4746   A0 02      LDY #$02
4748   68         PLA
4749   4A         LSR A
474A   90 01      BCC $474D
474C   C8         INY
474D   8C D3 06   STY $06D3
4750   A2 FF      LDX #$FF
4752   E8         INX
4753   E0 05      CPX #$05
4755   B0 2D      BCS $4784
4757   B5 0F      LDA $0F,X
4759   D0 F7      BNE $4752
475B   A5 01      LDA $01
475D   95 16      STA $16,X
475F   A5 02      LDA $02
4761   95 6E      STA $6E,X
4763   A5 03      LDA $03
4765   95 87      STA $87,X
4767   18         CLC
4768   69 18      ADC #$18
476A   85 03      STA $03
476C   A5 02      LDA $02
476E   69 00      ADC #$00
4770   85 02      STA $02
4772   A5 00      LDA $00
4774   95 CF      STA $CF,X
4776   A9 01      LDA #$01
4778   95 B6      STA $B6,X
477A   95 0F      STA $0F,X
477C   20 6C C2   JSR $C26C
477F   CE D3 06   DEC $06D3
4782   D0 CC      BNE $4750
4784   4C 5E C2   JMP $C25E
4787   A9 01      LDA #$01
4789   95 58      STA $58,X
478B   4A         LSR A
478C   95 1E      STA $1E,X
478E   95 A0      STA $A0,X
4790   B5 CF      LDA $CF,X
4792   9D 34 04   STA $0434,X
4795   38         SEC
4796   E9 18      SBC #$18
4798   9D 17 04   STA $0417,X
479B   A9 09      LDA #$09
479D   4C DB C7   JMP $C7DB
47A0   B5 16      LDA $16,X
47A2   8D CB 06   STA $06CB
47A5   38         SEC
47A6   E9 12      SBC #$12
47A8   20 04 8E   JSR $8E04
47AB   A4 C3      LDY $C3
47AD   B7         ???
47AE   C7         ???
47AF   A8         TAY
47B0   C4 A3      CPY $A3
47B2   C5 3D      CMP $3D
47B4   C6 9C      DEC $9C
47B6   C6 60      DEC $60
47B8   A0 05      LDY #$05
47BA   B9 16 00   LDA $0016,Y
47BD   C9 11      CMP #$11
47BF   D0 05      BNE $47C6
47C1   A9 01      LDA #$01
47C3   99 1E 00   STA $001E,Y
47C6   88         DEY
47C7   10 F1      BPL $47BA
47C9   A9 00      LDA #$00
47CB   8D CB 06   STA $06CB
47CE   95 0F      STA $0F,X
47D0   60         RTS
47D1   A9 02      LDA #$02
47D3   95 46      STA $46,X
47D5   A9 F8      LDA #$F8
47D7   95 58      STA $58,X
47D9   A9 03      LDA #$03
47DB   9D 9A 04   STA $049A,X
47DE   60         RTS
47DF   D6 CF      DEC $CF,X
47E1   D6 CF      DEC $CF,X
47E3   AC CC 06   LDY $06CC
47E6   D0 05      BNE $47ED
47E8   A0 02      LDY #$02
47EA   20 71 C8   JSR $C871
47ED   A0 FF      LDY #$FF
47EF   AD A0 03   LDA $03A0
47F2   95 1E      STA $1E,X
47F4   10 02      BPL $47F8
47F6   8A         TXA
47F7   A8         TAY
47F8   8C A0 03   STY $03A0
47FB   A9 00      LDA #$00
47FD   95 46      STA $46,X
47FF   A8         TAY
4800   20 71 C8   JSR $C871
4803   A9 FF      LDA #$FF
4805   9D A2 03   STA $03A2,X
4808   4C 28 C8   JMP $C828
480B   A9 00      LDA #$00
480D   95 58      STA $58,X
480F   4C 28 C8   JMP $C828
4812   A0 40      LDY #$40
4814   B5 CF      LDA $CF,X
4816   10 07      BPL $481F
4818   49 FF      EOR #$FF
481A   18         CLC
481B   69 01      ADC #$01
481D   A0 C0      LDY #$C0
481F   9D 01 04   STA $0401,X
4822   98         TYA
4823   18         CLC
4824   75 CF      ADC $CF,X
4826   95 58      STA $58,X
4828   20 63 C3   JSR $C363
482B   A9 05      LDA #$05
482D   AC 4E 07   LDY $074E
4830   C0 03      CPY #$03
4832   F0 07      BEQ $483B
4834   AC CC 06   LDY $06CC
4837   D0 02      BNE $483B
4839   A9 06      LDA #$06
483B   9D 9A 04   STA $049A,X
483E   60         RTS
483F   20 4B C8   JSR $C84B
4842   4C 48 C8   JMP $C848
4845   20 57 C8   JSR $C857
4848   4C 2B C8   JMP $C82B
484B   A9 10      LDA #$10
484D   9D 34 04   STA $0434,X
4850   A9 FF      LDA #$FF
4852   95 A0      STA $A0,X
4854   4C 60 C8   JMP $C860
4857   A9 F0      LDA #$F0
4859   9D 34 04   STA $0434,X
485C   A9 00      LDA #$00
485E   95 A0      STA $A0,X
4860   A0 01      LDY #$01
4862   20 71 C8   JSR $C871
4865   A9 04      LDA #$04
4867   9D 9A 04   STA $049A,X
486A   60         RTS
486B   08         PHP
486C   0C         ???
486D   F8         SED
486E   00         BRK
486F   00         BRK
4870   FF         ???
4871   B5 87      LDA $87,X
4873   18         CLC
4874   79 6B C8   ADC $C86B,Y
4877   95 87      STA $87,X
4879   B5 6E      LDA $6E,X
487B   79 6E C8   ADC $C86E,Y
487E   95 6E      STA $6E,X
4880   60         RTS
4881   60         RTS
4882   A6 08      LDX $08
4884   A9 00      LDA #$00
4886   B4 16      LDY $16,X
4888   C0 15      CPY #$15
488A   90 03      BCC $488F
488C   98         TYA
488D   E9 14      SBC #$14
488F   20 04 8E   JSR $8E04
4892   E0 C8      CPX #$C8
4894   35 C9      AND $C9,X
4896   95 D2      STA $D2,X
4898   D6 C8      DEC $C8,X
489A   D6 C8      DEC $C8,X
489C   D6 C8      DEC $C8,X
489E   D6 C8      DEC $C8,X
48A0   47         ???
48A1   C9 47      CMP #$47
48A3   C9 47      CMP #$47
48A5   C9 47      CMP #$47
48A7   C9 47      CMP #$47
48A9   C9 47      CMP #$47
48AB   C9 47      CMP #$47
48AD   C9 47      CMP #$47
48AF   C9 D6      CMP #$D6
48B1   C8         INY
48B2   65 C9      ADC $C9
48B4   65 C9      ADC $C9
48B6   65 C9      ADC $C9
48B8   65 C9      ADC $C9
48BA   65 C9      ADC $C9
48BC   65 C9      ADC $C9
48BE   65 C9      ADC $C9
48C0   4D C9 4D   EOR $4DC9
48C3   C9 65      CMP #$65
48C5   D0 85      BNE $484C
48C7   BC 4B B9   LDY $B94B,X
48CA   D6 C8      DEC $C8,X
48CC   D9 D2 BA   CMP $BAD2,Y
48CF   B8         CLV
48D0   D6 C8      DEC $C8,X
48D2   A4 B7      LDY $B7
48D4   D7         ???
48D5   C8         INY
48D6   60         RTS
48D7   20 AF F1   JSR $F1AF
48DA   20 52 F1   JSR $F152
48DD   4C 7D E8   JMP $E87D
48E0   A9 00      LDA #$00
48E2   9D C5 03   STA $03C5,X
48E5   20 AF F1   JSR $F1AF
48E8   20 52 F1   JSR $F152
48EB   20 7D E8   JSR $E87D
48EE   20 43 E2   JSR $E243
48F1   20 C1 DF   JSR $DFC1
48F4   20 33 DA   JSR $DA33
48F7   20 53 D8   JSR $D853
48FA   AC 47 07   LDY $0747
48FD   D0 03      BNE $4902
48FF   20 05 C9   JSR $C905
4902   4C 7A D6   JMP $D67A
4905   B5 16      LDA $16,X
4907   20 04 8E   JSR $8E04
490A   77         ???
490B   CA         DEX
490C   77         ???
490D   CA         DEX
490E   77         ???
490F   CA         DEX
4910   77         ???
4911   CA         DEX
4912   77         ???
4913   CA         DEX
4914   D8         CLD
4915   C9 77      CMP #$77
4917   CA         DEX
4918   89         ???
4919   CB         ???
491A   36 CC      ROL $CC,X
491C   34         ???
491D   C9 4A      CMP #$4A
491F   CC 4A CC   CPY $CC4A
4922   B0 C9      BCS $48ED
4924   B0 D3      BCS $48F9
4926   F9 CA FF   SBC $FFCA,Y
4929   CA         DEX
492A   25 CB      AND $CB
492C   28         PLP
492D   CF         ???
492E   77         ???
492F   CA         DEX
4930   34         ???
4931   C9 DF      CMP #$DF
4933   CE 60 20   DEC $2060
4936   EB         ???
4937   D1 20      CMP ($20),Y
4939   AF         ???
493A   F1 20      SBC ($20),Y
493C   52         ???
493D   F1 20      SBC ($20),Y
493F   43         ???
4940   E2         ???
4941   20 53 D8   JSR $D853
4944   4C 7A D6   JMP $D67A
4947   20 3C CD   JSR $CD3C
494A   4C 7A D6   JMP $D67A
494D   20 AF F1   JSR $F1AF
4950   20 52 F1   JSR $F152
4953   20 4C E2   JSR $E24C
4956   20 7B DB   JSR $DB7B
4959   20 52 F1   JSR $F152
495C   20 66 ED   JSR $ED66
495F   20 55 D6   JSR $D655
4962   4C 7A D6   JMP $D67A
4965   20 AF F1   JSR $F1AF
4968   20 52 F1   JSR $F152
496B   20 73 E2   JSR $E273
496E   20 45 DB   JSR $DB45
4971   AD 47 07   LDA $0747
4974   D0 03      BNE $4979
4976   20 82 C9   JSR $C982
4979   20 52 F1   JSR $F152
497C   20 C8 E5   JSR $E5C8
497F   4C 7A D6   JMP $D67A
4982   B5 16      LDA $16,X
4984   38         SEC
4985   E9 24      SBC #$24
4987   20 04 8E   JSR $8E04
498A   32         ???
498B   D4         ???
498C   D3         ???
498D   D5 4F      CMP $4F,X
498F   D6 4F      DEC $4F,X
4991   D6 07      DEC $07,X
4993   D6 31      DEC $31,X
4995   D6 3D      DEC $3D,X
4997   D6 A9      DEC $A9,X
4999   00         BRK
499A   95 0F      STA $0F,X
499C   95 16      STA $16,X
499E   95 1E      STA $1E,X
49A0   9D 10 01   STA $0110,X
49A3   9D 96 07   STA $0796,X
49A6   9D 25 01   STA $0125,X
49A9   9D C5 03   STA $03C5,X
49AC   9D 8A 07   STA $078A,X
49AF   60         RTS
49B0   BD 96 07   LDA $0796,X
49B3   D0 16      BNE $49CB
49B5   20 F7 C2   JSR $C2F7
49B8   BD A8 07   LDA $07A8,X
49BB   09 80      ORA #$80
49BD   9D 34 04   STA $0434,X
49C0   29 0F      AND #$0F
49C2   09 06      ORA #$06
49C4   9D 96 07   STA $0796,X
49C7   A9 F9      LDA #$F9
49C9   95 A0      STA $A0,X
49CB   4C 92 BF   JMP $BF92
49CE   30 1C      BMI $49EC
49D0   00         BRK
49D1   E8         INX
49D2   00         BRK
49D3   18         CLC
49D4   08         PHP
49D5   F8         SED
49D6   0C         ???
49D7   F4         ???
49D8   B5 1E      LDA $1E,X
49DA   29 20      AND #$20
49DC   F0 03      BEQ $49E1
49DE   4C E5 CA   JMP $CAE5
49E1   B5 3C      LDA $3C,X
49E3   F0 2D      BEQ $4A12
49E5   D6 3C      DEC $3C,X
49E7   AD D1 03   LDA $03D1
49EA   29 0C      AND #$0C
49EC   D0 6A      BNE $4A58
49EE   BD A2 03   LDA $03A2,X
49F1   D0 17      BNE $4A0A
49F3   AC CC 06   LDY $06CC
49F6   B9 CE C9   LDA $C9CE,Y
49F9   9D A2 03   STA $03A2,X
49FC   20 94 BA   JSR $BA94
49FF   90 09      BCC $4A0A
4A01   B5 1E      LDA $1E,X
4A03   09 08      ORA #$08
4A05   95 1E      STA $1E,X
4A07   4C 58 CA   JMP $CA58
4A0A   DE A2 03   DEC $03A2,X
4A0D   4C 58 CA   JMP $CA58
4A10   20 37 B5   JSR $B537
4A13   1E 29 07   ASL $0729,X
4A16   C9 01      CMP #$01
4A18   F0 3E      BEQ $4A58
4A1A   A9 00      LDA #$00
4A1C   85 00      STA $00
4A1E   A0 FA      LDY #$FA
4A20   B5 CF      LDA $CF,X
4A22   30 13      BMI $4A37
4A24   A0 FD      LDY #$FD
4A26   C9 70      CMP #$70
4A28   E6 00      INC $00
4A2A   90 0B      BCC $4A37
4A2C   C6 00      DEC $00
4A2E   BD A8 07   LDA $07A8,X
4A31   29 01      AND #$01
4A33   D0 02      BNE $4A37
4A35   A0 FA      LDY #$FA
4A37   94 A0      STY $A0,X
4A39   B5 1E      LDA $1E,X
4A3B   09 01      ORA #$01
4A3D   95 1E      STA $1E,X
4A3F   A5 00      LDA $00
4A41   3D A9 07   AND $07A9,X
4A44   A8         TAY
4A45   AD CC 06   LDA $06CC
4A48   D0 01      BNE $4A4B
4A4A   A8         TAY
4A4B   B9 10 CA   LDA $CA10,Y
4A4E   9D 8A 07   STA $078A,X
4A51   BD A8 07   LDA $07A8,X
4A54   09 C0      ORA #$C0
4A56   95 3C      STA $3C,X
4A58   A0 FC      LDY #$FC
4A5A   A5 09      LDA $09
4A5C   29 40      AND #$40
4A5E   D0 02      BNE $4A62
4A60   A0 04      LDY #$04
4A62   94 58      STY $58,X
4A64   A0 01      LDY #$01
4A66   20 43 E1   JSR $E143
4A69   30 0A      BMI $4A75
4A6B   C8         INY
4A6C   BD 96 07   LDA $0796,X
4A6F   D0 04      BNE $4A75
4A71   A9 F8      LDA #$F8
4A73   95 58      STA $58,X
4A75   94 46      STY $46,X
4A77   A0 00      LDY #$00
4A79   B5 1E      LDA $1E,X
4A7B   29 40      AND #$40
4A7D   D0 19      BNE $4A98
4A7F   B5 1E      LDA $1E,X
4A81   0A         ASL A
4A82   B0 30      BCS $4AB4
4A84   B5 1E      LDA $1E,X
4A86   29 20      AND #$20
4A88   D0 5B      BNE $4AE5
4A8A   B5 1E      LDA $1E,X
4A8C   29 07      AND #$07
4A8E   F0 24      BEQ $4AB4
4A90   C9 05      CMP #$05
4A92   F0 04      BEQ $4A98
4A94   C9 03      CMP #$03
4A96   B0 30      BCS $4AC8
4A98   20 63 BF   JSR $BF63
4A9B   A0 00      LDY #$00
4A9D   B5 1E      LDA $1E,X
4A9F   C9 02      CMP #$02
4AA1   F0 0C      BEQ $4AAF
4AA3   29 40      AND #$40
4AA5   F0 0D      BEQ $4AB4
4AA7   B5 16      LDA $16,X
4AA9   C9 2E      CMP #$2E
4AAB   F0 07      BEQ $4AB4
4AAD   D0 03      BNE $4AB2
4AAF   4C 02 BF   JMP $BF02
4AB2   A0 01      LDY #$01
4AB4   B5 58      LDA $58,X
4AB6   48         PHA
4AB7   10 02      BPL $4ABB
4AB9   C8         INY
4ABA   C8         INY
4ABB   18         CLC
4ABC   79 D0 C9   ADC $C9D0,Y
4ABF   95 58      STA $58,X
4AC1   20 02 BF   JSR $BF02
4AC4   68         PLA
4AC5   95 58      STA $58,X
4AC7   60         RTS
4AC8   BD 96 07   LDA $0796,X
4ACB   D0 1E      BNE $4AEB
4ACD   95 1E      STA $1E,X
4ACF   A5 09      LDA $09
4AD1   29 01      AND #$01
4AD3   A8         TAY
4AD4   C8         INY
4AD5   94 46      STY $46,X
4AD7   88         DEY
4AD8   AD 6A 07   LDA $076A
4ADB   F0 02      BEQ $4ADF
4ADD   C8         INY
4ADE   C8         INY
4ADF   B9 D4 C9   LDA $C9D4,Y
4AE2   95 58      STA $58,X
4AE4   60         RTS
4AE5   20 63 BF   JSR $BF63
4AE8   4C 02 BF   JMP $BF02
4AEB   C9 0E      CMP #$0E
4AED   D0 09      BNE $4AF8
4AEF   B5 16      LDA $16,X
4AF1   C9 06      CMP #$06
4AF3   D0 03      BNE $4AF8
4AF5   20 98 C9   JSR $C998
4AF8   60         RTS
4AF9   20 92 BF   JSR $BF92
4AFC   4C 02 BF   JMP $BF02
4AFF   B5 A0      LDA $A0,X
4B01   1D 34 04   ORA $0434,X
4B04   D0 13      BNE $4B19
4B06   9D 17 04   STA $0417,X
4B09   B5 CF      LDA $CF,X
4B0B   DD 01 04   CMP $0401,X
4B0E   B0 09      BCS $4B19
4B10   A5 09      LDA $09
4B12   29 07      AND #$07
4B14   D0 02      BNE $4B18
4B16   F6 CF      INC $CF,X
4B18   60         RTS
4B19   B5 CF      LDA $CF,X
4B1B   D5 58      CMP $58,X
4B1D   90 03      BCC $4B22
4B1F   4C 75 BF   JMP $BF75
4B22   4C 70 BF   JMP $BF70
4B25   20 45 CB   JSR $CB45
4B28   20 66 CB   JSR $CB66
4B2B   A0 01      LDY #$01
4B2D   A5 09      LDA $09
4B2F   29 03      AND #$03
4B31   D0 11      BNE $4B44
4B33   A5 09      LDA $09
4B35   29 40      AND #$40
4B37   D0 02      BNE $4B3B
4B39   A0 FF      LDY #$FF
4B3B   84 00      STY $00
4B3D   B5 CF      LDA $CF,X
4B3F   18         CLC
4B40   65 00      ADC $00
4B42   95 CF      STA $CF,X
4B44   60         RTS
4B45   A9 13      LDA #$13
4B47   85 01      STA $01
4B49   A5 09      LDA $09
4B4B   29 03      AND #$03
4B4D   D0 0D      BNE $4B5C
4B4F   B4 58      LDY $58,X
4B51   B5 A0      LDA $A0,X
4B53   4A         LSR A
4B54   B0 0A      BCS $4B60
4B56   C4 01      CPY $01
4B58   F0 03      BEQ $4B5D
4B5A   F6 58      INC $58,X
4B5C   60         RTS
4B5D   F6 A0      INC $A0,X
4B5F   60         RTS
4B60   98         TYA
4B61   F0 FA      BEQ $4B5D
4B63   D6 58      DEC $58,X
4B65   60         RTS
4B66   B5 58      LDA $58,X
4B68   48         PHA
4B69   A0 01      LDY #$01
4B6B   B5 A0      LDA $A0,X
4B6D   29 02      AND #$02
4B6F   D0 0B      BNE $4B7C
4B71   B5 58      LDA $58,X
4B73   49 FF      EOR #$FF
4B75   18         CLC
4B76   69 01      ADC #$01
4B78   95 58      STA $58,X
4B7A   A0 02      LDY #$02
4B7C   94 46      STY $46,X
4B7E   20 02 BF   JSR $BF02
4B81   85 00      STA $00
4B83   68         PLA
4B84   95 58      STA $58,X
4B86   60         RTS
4B87   3F         ???
4B88   03         ???
4B89   B5 1E      LDA $1E,X
4B8B   29 20      AND #$20
4B8D   D0 4D      BNE $4BDC
4B8F   AC CC 06   LDY $06CC
4B92   BD A8 07   LDA $07A8,X
4B95   39 87 CB   AND $CB87,Y
4B98   D0 12      BNE $4BAC
4B9A   8A         TXA
4B9B   4A         LSR A
4B9C   90 04      BCC $4BA2
4B9E   A4 45      LDY $45
4BA0   B0 08      BCS $4BAA
4BA2   A0 02      LDY #$02
4BA4   20 43 E1   JSR $E143
4BA7   10 01      BPL $4BAA
4BA9   88         DEY
4BAA   94 46      STY $46,X
4BAC   20 DF CB   JSR $CBDF
4BAF   B5 CF      LDA $CF,X
4BB1   38         SEC
4BB2   FD 34 04   SBC $0434,X
4BB5   C9 20      CMP #$20
4BB7   90 02      BCC $4BBB
4BB9   95 CF      STA $CF,X
4BBB   B4 46      LDY $46,X
4BBD   88         DEY
4BBE   D0 0E      BNE $4BCE
4BC0   B5 87      LDA $87,X
4BC2   18         CLC
4BC3   75 58      ADC $58,X
4BC5   95 87      STA $87,X
4BC7   B5 6E      LDA $6E,X
4BC9   69 00      ADC #$00
4BCB   95 6E      STA $6E,X
4BCD   60         RTS
4BCE   B5 87      LDA $87,X
4BD0   38         SEC
4BD1   F5 58      SBC $58,X
4BD3   95 87      STA $87,X
4BD5   B5 6E      LDA $6E,X
4BD7   E9 00      SBC #$00
4BD9   95 6E      STA $6E,X
4BDB   60         RTS
4BDC   4C 8C BF   JMP $BF8C
4BDF   B5 A0      LDA $A0,X
4BE1   29 02      AND #$02
4BE3   D0 37      BNE $4C1C
4BE5   A5 09      LDA $09
4BE7   29 07      AND #$07
4BE9   48         PHA
4BEA   B5 A0      LDA $A0,X
4BEC   4A         LSR A
4BED   B0 15      BCS $4C04
4BEF   68         PLA
4BF0   D0 11      BNE $4C03
4BF2   BD 34 04   LDA $0434,X
4BF5   18         CLC
4BF6   69 01      ADC #$01
4BF8   9D 34 04   STA $0434,X
4BFB   95 58      STA $58,X
4BFD   C9 02      CMP #$02
4BFF   D0 02      BNE $4C03
4C01   F6 A0      INC $A0,X
4C03   60         RTS
4C04   68         PLA
4C05   D0 14      BNE $4C1B
4C07   BD 34 04   LDA $0434,X
4C0A   38         SEC
4C0B   E9 01      SBC #$01
4C0D   9D 34 04   STA $0434,X
4C10   95 58      STA $58,X
4C12   D0 07      BNE $4C1B
4C14   F6 A0      INC $A0,X
4C16   A9 02      LDA #$02
4C18   9D 96 07   STA $0796,X
4C1B   60         RTS
4C1C   BD 96 07   LDA $0796,X
4C1F   F0 08      BEQ $4C29
4C21   A5 09      LDA $09
4C23   4A         LSR A
4C24   B0 02      BCS $4C28
4C26   F6 CF      INC $CF,X
4C28   60         RTS
4C29   B5 CF      LDA $CF,X
4C2B   69 10      ADC #$10
4C2D   C5 CE      CMP $CE
4C2F   90 F0      BCC $4C21
4C31   A9 00      LDA #$00
4C33   95 A0      STA $A0,X
4C35   60         RTS
4C36   B5 1E      LDA $1E,X
4C38   29 20      AND #$20
4C3A   F0 03      BEQ $4C3F
4C3C   4C 92 BF   JMP $BF92
4C3F   A9 E8      LDA #$E8
4C41   95 58      STA $58,X
4C43   4C 02 BF   JMP $BF02
4C46   40         RTI
4C47   80         ???
4C48   04         ???
4C49   04         ???
4C4A   B5 1E      LDA $1E,X
4C4C   29 20      AND #$20
4C4E   F0 03      BEQ $4C53
4C50   4C 8C BF   JMP $BF8C
4C53   85 03      STA $03
4C55   B5 16      LDA $16,X
4C57   38         SEC
4C58   E9 0A      SBC #$0A
4C5A   A8         TAY
4C5B   B9 46 CC   LDA $CC46,Y
4C5E   85 02      STA $02
4C60   BD 01 04   LDA $0401,X
4C63   38         SEC
4C64   E5 02      SBC $02
4C66   9D 01 04   STA $0401,X
4C69   B5 87      LDA $87,X
4C6B   E9 00      SBC #$00
4C6D   95 87      STA $87,X
4C6F   B5 6E      LDA $6E,X
4C71   E9 00      SBC #$00
4C73   95 6E      STA $6E,X
4C75   A9 20      LDA #$20
4C77   85 02      STA $02
4C79   E0 02      CPX #$02
4C7B   90 49      BCC $4CC6
4C7D   B5 58      LDA $58,X
4C7F   C9 10      CMP #$10
4C81   90 16      BCC $4C99
4C83   BD 17 04   LDA $0417,X
4C86   18         CLC
4C87   65 02      ADC $02
4C89   9D 17 04   STA $0417,X
4C8C   B5 CF      LDA $CF,X
4C8E   65 03      ADC $03
4C90   95 CF      STA $CF,X
4C92   B5 B6      LDA $B6,X
4C94   69 00      ADC #$00
4C96   4C AC CC   JMP $CCAC
4C99   BD 17 04   LDA $0417,X
4C9C   38         SEC
4C9D   E5 02      SBC $02
4C9F   9D 17 04   STA $0417,X
4CA2   B5 CF      LDA $CF,X
4CA4   E5 03      SBC $03
4CA6   95 CF      STA $CF,X
4CA8   B5 B6      LDA $B6,X
4CAA   E9 00      SBC #$00
4CAC   95 B6      STA $B6,X
4CAE   A0 00      LDY #$00
4CB0   B5 CF      LDA $CF,X
4CB2   38         SEC
4CB3   FD 34 04   SBC $0434,X
4CB6   10 07      BPL $4CBF
4CB8   A0 10      LDY #$10
4CBA   49 FF      EOR #$FF
4CBC   18         CLC
4CBD   69 01      ADC #$01
4CBF   C9 0F      CMP #$0F
4CC1   90 03      BCC $4CC6
4CC3   98         TYA
4CC4   95 58      STA $58,X
4CC6   60         RTS
4CC7   00         BRK
4CC8   01 03      ORA ($03,X)
4CCA   04         ???
4CCB   05 06      ORA $06
4CCD   07         ???
4CCE   07         ???
4CCF   08         PHP
4CD0   00         BRK
4CD1   03         ???
4CD2   06 09      ASL $09
4CD4   0B         ???
4CD5   0D 0E 0F   ORA $0F0E
4CD8   10 00      BPL $4CDA
4CDA   04         ???
4CDB   09 0D      ORA #$0D
4CDD   10 13      BPL $4CF2
4CDF   16 17      ASL $17,X
4CE1   18         CLC
4CE2   00         BRK
4CE3   06 0C      ASL $0C
4CE5   12         ???
4CE6   16 1A      ASL $1A,X
4CE8   1D 1F 20   ORA $201F,X
4CEB   00         BRK
4CEC   07         ???
4CED   0F         ???
4CEE   16 1C      ASL $1C,X
4CF0   21 25      AND ($25,X)
4CF2   27         ???
4CF3   28         PLP
4CF4   00         BRK
4CF5   09 12      ORA #$12
4CF7   1B         ???
4CF8   21 27      AND ($27,X)
4CFA   2C 2F 30   BIT $302F
4CFD   00         BRK
4CFE   0B         ???
4CFF   15 1F      ORA $1F,X
4D01   27         ???
4D02   2E 33 37   ROL $3733
4D05   38         SEC
4D06   00         BRK
4D07   0C         ???
4D08   18         CLC
4D09   24 2D      BIT $2D
4D0B   35 3B      AND $3B,X
4D0D   3E 40 00   ROL $0040,X
4D10   0E 1B 28   ASL $281B
4D13   32         ???
4D14   3B         ???
4D15   42         ???
4D16   46 48      LSR $48
4D18   00         BRK
4D19   0F         ???
4D1A   1F         ???
4D1B   2D 38 42   AND $4238
4D1E   4A         LSR A
4D1F   4E 50 00   LSR $0050
4D22   11 22      ORA ($22),Y
4D24   31 3E      AND ($3E),Y
4D26   49 51      EOR #$51
4D28   56 58      LSR $58,X
4D2A   01 03      ORA ($03,X)
4D2C   02         ???
4D2D   00         BRK
4D2E   00         BRK
4D2F   09 12      ORA #$12
4D31   1B         ???
4D32   24 2D      BIT $2D
4D34   36 3F      ROL $3F,X
4D36   48         PHA
4D37   51 5A      EOR ($5A),Y
4D39   63         ???
4D3A   0C         ???
4D3B   18         CLC
4D3C   20 AF F1   JSR $F1AF
4D3F   AD D1 03   LDA $03D1
4D42   29 08      AND #$08
4D44   D0 74      BNE $4DBA
4D46   AD 47 07   LDA $0747
4D49   D0 0A      BNE $4D55
4D4B   BD 88 03   LDA $0388,X
4D4E   20 10 D4   JSR $D410
4D51   29 1F      AND #$1F
4D53   95 A0      STA $A0,X
4D55   B5 A0      LDA $A0,X
4D57   B4 16      LDY $16,X
4D59   C0 1F      CPY #$1F
4D5B   90 0D      BCC $4D6A
4D5D   C9 08      CMP #$08
4D5F   F0 04      BEQ $4D65
4D61   C9 18      CMP #$18
4D63   D0 05      BNE $4D6A
4D65   18         CLC
4D66   69 01      ADC #$01
4D68   95 A0      STA $A0,X
4D6A   85 EF      STA $EF
4D6C   20 52 F1   JSR $F152
4D6F   20 8E CE   JSR $CE8E
4D72   BC E5 06   LDY $06E5,X
4D75   AD B9 03   LDA $03B9
4D78   99 00 02   STA $0200,Y
4D7B   85 07      STA $07
4D7D   AD AE 03   LDA $03AE
4D80   99 03 02   STA $0203,Y
4D83   85 06      STA $06
4D85   A9 01      LDA #$01
4D87   85 00      STA $00
4D89   20 08 CE   JSR $CE08
4D8C   A0 05      LDY #$05
4D8E   B5 16      LDA $16,X
4D90   C9 1F      CMP #$1F
4D92   90 02      BCC $4D96
4D94   A0 0B      LDY #$0B
4D96   84 ED      STY $ED
4D98   A9 00      LDA #$00
4D9A   85 00      STA $00
4D9C   A5 EF      LDA $EF
4D9E   20 8E CE   JSR $CE8E
4DA1   20 BB CD   JSR $CDBB
4DA4   A5 00      LDA $00
4DA6   C9 04      CMP #$04
4DA8   D0 08      BNE $4DB2
4DAA   AC CF 06   LDY $06CF
4DAD   B9 E5 06   LDA $06E5,Y
4DB0   85 06      STA $06
4DB2   E6 00      INC $00
4DB4   A5 00      LDA $00
4DB6   C5 ED      CMP $ED
4DB8   90 E2      BCC $4D9C
4DBA   60         RTS
4DBB   A5 03      LDA $03
4DBD   85 05      STA $05
4DBF   A4 06      LDY $06
4DC1   A5 01      LDA $01
4DC3   46 05      LSR $05
4DC5   B0 04      BCS $4DCB
4DC7   49 FF      EOR #$FF
4DC9   69 01      ADC #$01
4DCB   18         CLC
4DCC   6D AE 03   ADC $03AE
4DCF   99 03 02   STA $0203,Y
4DD2   85 06      STA $06
4DD4   CD AE 03   CMP $03AE
4DD7   B0 09      BCS $4DE2
4DD9   AD AE 03   LDA $03AE
4DDC   38         SEC
4DDD   E5 06      SBC $06
4DDF   4C E6 CD   JMP $CDE6
4DE2   38         SEC
4DE3   ED AE 03   SBC $03AE
4DE6   C9 59      CMP #$59
4DE8   90 04      BCC $4DEE
4DEA   A9 F8      LDA #$F8
4DEC   D0 15      BNE $4E03
4DEE   AD B9 03   LDA $03B9
4DF1   C9 F8      CMP #$F8
4DF3   F0 0E      BEQ $4E03
4DF5   A5 02      LDA $02
4DF7   46 05      LSR $05
4DF9   B0 04      BCS $4DFF
4DFB   49 FF      EOR #$FF
4DFD   69 01      ADC #$01
4DFF   18         CLC
4E00   6D B9 03   ADC $03B9
4E03   99 00 02   STA $0200,Y
4E06   85 07      STA $07
4E08   20 ED EC   JSR $ECED
4E0B   98         TYA
4E0C   48         PHA
4E0D   AD 9F 07   LDA $079F
4E10   0D 47 07   ORA $0747
4E13   D0 70      BNE $4E85
4E15   85 05      STA $05
4E17   A4 B5      LDY $B5
4E19   88         DEY
4E1A   D0 69      BNE $4E85
4E1C   A4 CE      LDY $CE
4E1E   AD 54 07   LDA $0754
4E21   D0 05      BNE $4E28
4E23   AD 14 07   LDA $0714
4E26   F0 09      BEQ $4E31
4E28   E6 05      INC $05
4E2A   E6 05      INC $05
4E2C   98         TYA
4E2D   18         CLC
4E2E   69 18      ADC #$18
4E30   A8         TAY
4E31   98         TYA
4E32   38         SEC
4E33   E5 07      SBC $07
4E35   10 05      BPL $4E3C
4E37   49 FF      EOR #$FF
4E39   18         CLC
4E3A   69 01      ADC #$01
4E3C   C9 08      CMP #$08
4E3E   B0 1C      BCS $4E5C
4E40   A5 06      LDA $06
4E42   C9 F0      CMP #$F0
4E44   B0 16      BCS $4E5C
4E46   AD 07 02   LDA $0207
4E49   18         CLC
4E4A   69 04      ADC #$04
4E4C   85 04      STA $04
4E4E   38         SEC
4E4F   E5 06      SBC $06
4E51   10 05      BPL $4E58
4E53   49 FF      EOR #$FF
4E55   18         CLC
4E56   69 01      ADC #$01
4E58   C9 08      CMP #$08
4E5A   90 13      BCC $4E6F
4E5C   A5 05      LDA $05
4E5E   C9 02      CMP #$02
4E60   F0 23      BEQ $4E85
4E62   A4 05      LDY $05
4E64   A5 CE      LDA $CE
4E66   18         CLC
4E67   79 3A CD   ADC $CD3A,Y
4E6A   E6 05      INC $05
4E6C   4C 32 CE   JMP $CE32
4E6F   A2 01      LDX #$01
4E71   A5 04      LDA $04
4E73   C5 06      CMP $06
4E75   B0 01      BCS $4E78
4E77   E8         INX
4E78   86 46      STX $46
4E7A   A2 00      LDX #$00
4E7C   A5 00      LDA $00
4E7E   48         PHA
4E7F   20 2C D9   JSR $D92C
4E82   68         PLA
4E83   85 00      STA $00
4E85   68         PLA
4E86   18         CLC
4E87   69 04      ADC #$04
4E89   85 06      STA $06
4E8B   A6 08      LDX $08
4E8D   60         RTS
4E8E   48         PHA
4E8F   29 0F      AND #$0F
4E91   C9 09      CMP #$09
4E93   90 05      BCC $4E9A
4E95   49 0F      EOR #$0F
4E97   18         CLC
4E98   69 01      ADC #$01
4E9A   85 01      STA $01
4E9C   A4 00      LDY $00
4E9E   B9 2E CD   LDA $CD2E,Y
4EA1   18         CLC
4EA2   65 01      ADC $01
4EA4   A8         TAY
4EA5   B9 C7 CC   LDA $CCC7,Y
4EA8   85 01      STA $01
4EAA   68         PLA
4EAB   48         PHA
4EAC   18         CLC
4EAD   69 08      ADC #$08
4EAF   29 0F      AND #$0F
4EB1   C9 09      CMP #$09
4EB3   90 05      BCC $4EBA
4EB5   49 0F      EOR #$0F
4EB7   18         CLC
4EB8   69 01      ADC #$01
4EBA   85 02      STA $02
4EBC   A4 00      LDY $00
4EBE   B9 2E CD   LDA $CD2E,Y
4EC1   18         CLC
4EC2   65 02      ADC $02
4EC4   A8         TAY
4EC5   B9 C7 CC   LDA $CCC7,Y
4EC8   85 02      STA $02
4ECA   68         PLA
4ECB   4A         LSR A
4ECC   4A         LSR A
4ECD   4A         LSR A
4ECE   A8         TAY
4ECF   B9 2A CD   LDA $CD2A,Y
4ED2   85 03      STA $03
4ED4   60         RTS
4ED5   F8         SED
4ED6   A0 70      LDY #$70
4ED8   BD 00 20   LDA $2000,X
4EDB   20 20 00   JSR $0020
4EDE   00         BRK
4EDF   B5 1E      LDA $1E,X
4EE1   29 20      AND #$20
4EE3   F0 08      BEQ $4EED
4EE5   A9 00      LDA #$00
4EE7   9D C5 03   STA $03C5,X
4EEA   4C 92 BF   JMP $BF92
4EED   20 02 BF   JSR $BF02
4EF0   A0 0D      LDY #$0D
4EF2   A9 05      LDA #$05
4EF4   20 96 BF   JSR $BF96
4EF7   BD 34 04   LDA $0434,X
4EFA   4A         LSR A
4EFB   4A         LSR A
4EFC   4A         LSR A
4EFD   4A         LSR A
4EFE   A8         TAY
4EFF   B5 CF      LDA $CF,X
4F01   38         SEC
4F02   F9 D5 CE   SBC $CED5,Y
4F05   10 05      BPL $4F0C
4F07   49 FF      EOR #$FF
4F09   18         CLC
4F0A   69 01      ADC #$01
4F0C   C9 08      CMP #$08
4F0E   B0 0E      BCS $4F1E
4F10   BD 34 04   LDA $0434,X
4F13   18         CLC
4F14   69 10      ADC #$10
4F16   9D 34 04   STA $0434,X
4F19   4A         LSR A
4F1A   4A         LSR A
4F1B   4A         LSR A
4F1C   4A         LSR A
4F1D   A8         TAY
4F1E   B9 DA CE   LDA $CEDA,Y
4F21   9D C5 03   STA $03C5,X
4F24   60         RTS
4F25   15 30      ORA $30,X
4F27   40         RTI
4F28   B5 1E      LDA $1E,X
4F2A   29 20      AND #$20
4F2C   F0 03      BEQ $4F31
4F2E   4C 63 BF   JMP $BF63
4F31   B5 1E      LDA $1E,X
4F33   F0 0B      BEQ $4F40
4F35   A9 00      LDA #$00
4F37   95 A0      STA $A0,X
4F39   8D CB 06   STA $06CB
4F3C   A9 10      LDA #$10
4F3E   D0 13      BNE $4F53
4F40   A9 12      LDA #$12
4F42   8D CB 06   STA $06CB
4F45   A0 02      LDY #$02
4F47   B9 25 CF   LDA $CF25,Y
4F4A   99 01 00   STA $0001,Y
4F4D   88         DEY
4F4E   10 F7      BPL $4F47
4F50   20 6C CF   JSR $CF6C
4F53   95 58      STA $58,X
4F55   A0 01      LDY #$01
4F57   B5 A0      LDA $A0,X
4F59   29 01      AND #$01
4F5B   D0 0A      BNE $4F67
4F5D   B5 58      LDA $58,X
4F5F   49 FF      EOR #$FF
4F61   18         CLC
4F62   69 01      ADC #$01
4F64   95 58      STA $58,X
4F66   C8         INY
4F67   94 46      STY $46,X
4F69   4C 02 BF   JMP $BF02
4F6C   A0 00      LDY #$00
4F6E   20 43 E1   JSR $E143
4F71   10 0A      BPL $4F7D
4F73   C8         INY
4F74   A5 00      LDA $00
4F76   49 FF      EOR #$FF
4F78   18         CLC
4F79   69 01      ADC #$01
4F7B   85 00      STA $00
4F7D   A5 00      LDA $00
4F7F   C9 3C      CMP #$3C
4F81   90 1C      BCC $4F9F
4F83   A9 3C      LDA #$3C
4F85   85 00      STA $00
4F87   B5 16      LDA $16,X
4F89   C9 11      CMP #$11
4F8B   D0 12      BNE $4F9F
4F8D   98         TYA
4F8E   D5 A0      CMP $A0,X
4F90   F0 0D      BEQ $4F9F
4F92   B5 A0      LDA $A0,X
4F94   F0 06      BEQ $4F9C
4F96   D6 58      DEC $58,X
4F98   B5 58      LDA $58,X
4F9A   D0 40      BNE $4FDC
4F9C   98         TYA
4F9D   95 A0      STA $A0,X
4F9F   A5 00      LDA $00
4FA1   29 3C      AND #$3C
4FA3   4A         LSR A
4FA4   4A         LSR A
4FA5   85 00      STA $00
4FA7   A0 00      LDY #$00
4FA9   A5 57      LDA $57
4FAB   F0 24      BEQ $4FD1
4FAD   AD 75 07   LDA $0775
4FB0   F0 1F      BEQ $4FD1
4FB2   C8         INY
4FB3   A5 57      LDA $57
4FB5   C9 19      CMP #$19
4FB7   90 08      BCC $4FC1
4FB9   AD 75 07   LDA $0775
4FBC   C9 02      CMP #$02
4FBE   90 01      BCC $4FC1
4FC0   C8         INY
4FC1   B5 16      LDA $16,X
4FC3   C9 12      CMP #$12
4FC5   D0 04      BNE $4FCB
4FC7   A5 57      LDA $57
4FC9   D0 06      BNE $4FD1
4FCB   B5 A0      LDA $A0,X
4FCD   D0 02      BNE $4FD1
4FCF   A0 00      LDY #$00
4FD1   B9 01 00   LDA $0001,Y
4FD4   A4 00      LDY $00
4FD6   38         SEC
4FD7   E9 01      SBC #$01
4FD9   88         DEY
4FDA   10 FA      BPL $4FD6
4FDC   60         RTS
4FDD   1A         ???
4FDE   58         CLI
4FDF   98         TYA
4FE0   96 94      STX $94,Y
4FE2   92         ???
4FE3   90 8E      BCC $4F73
4FE5   8C 8A 88   STY $888A
4FE8   86 84      STX $84
4FEA   82         ???
4FEB   80         ???
4FEC   AE 68 03   LDX $0368
4FEF   B5 16      LDA $16,X
4FF1   C9 2D      CMP #$2D
4FF3   D0 10      BNE $5005
4FF5   86 08      STX $08
4FF7   B5 1E      LDA $1E,X
4FF9   F0 1A      BEQ $5015
4FFB   29 40      AND #$40
4FFD   F0 06      BEQ $5005
4FFF   B5 CF      LDA $CF,X
5001   C9 E0      CMP #$E0
5003   90 0A      BCC $500F
5005   A9 80      LDA #$80
5007   85 FC      STA $FC
5009   EE 72 07   INC $0772
500C   4C 71 D0   JMP $D071
500F   20 8C BF   JSR $BF8C
5012   4C 7B D1   JMP $D17B
5015   CE 64 03   DEC $0364
5018   D0 44      BNE $505E
501A   A9 04      LDA #$04
501C   8D 64 03   STA $0364
501F   AD 63 03   LDA $0363
5022   49 01      EOR #$01
5024   8D 63 03   STA $0363
5027   A9 22      LDA #$22
5029   85 05      STA $05
502B   AC 69 03   LDY $0369
502E   B9 DD CF   LDA $CFDD,Y
5031   85 04      STA $04
5033   AC 00 03   LDY $0300
5036   C8         INY
5037   A2 0C      LDX #$0C
5039   20 CD 8A   JSR $8ACD
503C   A6 08      LDX $08
503E   20 8F 8A   JSR $8A8F
5041   A9 08      LDA #$08
5043   85 FE      STA $FE
5045   A9 01      LDA #$01
5047   85 FD      STA $FD
5049   EE 69 03   INC $0369
504C   AD 69 03   LDA $0369
504F   C9 0F      CMP #$0F
5051   D0 0B      BNE $505E
5053   20 63 C3   JSR $C363
5056   A9 40      LDA #$40
5058   95 1E      STA $1E,X
505A   A9 80      LDA #$80
505C   85 FE      STA $FE
505E   4C 7B D1   JMP $D17B
5061   21 41      AND ($41,X)
5063   11 31      ORA ($31),Y
5065   B5 1E      LDA $1E,X
5067   29 20      AND #$20
5069   F0 14      BEQ $507F
506B   B5 CF      LDA $CF,X
506D   C9 E0      CMP #$E0
506F   90 9E      BCC $500F
5071   A2 04      LDX #$04
5073   20 98 C9   JSR $C998
5076   CA         DEX
5077   10 FA      BPL $5073
5079   8D CB 06   STA $06CB
507C   A6 08      LDX $08
507E   60         RTS
507F   A9 00      LDA #$00
5081   8D CB 06   STA $06CB
5084   AD 47 07   LDA $0747
5087   F0 03      BEQ $508C
5089   4C 39 D1   JMP $D139
508C   AD 63 03   LDA $0363
508F   10 03      BPL $5094
5091   4C 0F D1   JMP $D10F
5094   CE 64 03   DEC $0364
5097   D0 0D      BNE $50A6
5099   A9 20      LDA #$20
509B   8D 64 03   STA $0364
509E   AD 63 03   LDA $0363
50A1   49 01      EOR #$01
50A3   8D 63 03   STA $0363
50A6   A5 09      LDA $09
50A8   29 0F      AND #$0F
50AA   D0 04      BNE $50B0
50AC   A9 02      LDA #$02
50AE   95 46      STA $46,X
50B0   BD 8A 07   LDA $078A,X
50B3   F0 1C      BEQ $50D1
50B5   20 43 E1   JSR $E143
50B8   10 17      BPL $50D1
50BA   A9 01      LDA #$01
50BC   95 46      STA $46,X
50BE   A9 02      LDA #$02
50C0   8D 65 03   STA $0365
50C3   A9 20      LDA #$20
50C5   9D 8A 07   STA $078A,X
50C8   8D 90 07   STA $0790
50CB   B5 87      LDA $87,X
50CD   C9 C8      CMP #$C8
50CF   B0 3E      BCS $510F
50D1   A5 09      LDA $09
50D3   29 03      AND #$03
50D5   D0 38      BNE $510F
50D7   B5 87      LDA $87,X
50D9   CD 66 03   CMP $0366
50DC   D0 0C      BNE $50EA
50DE   BD A7 07   LDA $07A7,X
50E1   29 03      AND #$03
50E3   A8         TAY
50E4   B9 61 D0   LDA $D061,Y
50E7   8D DC 06   STA $06DC
50EA   B5 87      LDA $87,X
50EC   18         CLC
50ED   6D 65 03   ADC $0365
50F0   95 87      STA $87,X
50F2   B4 46      LDY $46,X
50F4   C0 01      CPY #$01
50F6   F0 17      BEQ $510F
50F8   A0 FF      LDY #$FF
50FA   38         SEC
50FB   ED 66 03   SBC $0366
50FE   10 07      BPL $5107
5100   49 FF      EOR #$FF
5102   18         CLC
5103   69 01      ADC #$01
5105   A0 01      LDY #$01
5107   CD DC 06   CMP $06DC
510A   90 03      BCC $510F
510C   8C 65 03   STY $0365
510F   BD 8A 07   LDA $078A,X
5112   D0 28      BNE $513C
5114   20 8C BF   JSR $BF8C
5117   AD 5F 07   LDA $075F
511A   C9 05      CMP #$05
511C   90 09      BCC $5127
511E   A5 09      LDA $09
5120   29 03      AND #$03
5122   D0 03      BNE $5127
5124   20 94 BA   JSR $BA94
5127   B5 CF      LDA $CF,X
5129   C9 80      CMP #$80
512B   90 1C      BCC $5149
512D   BD A7 07   LDA $07A7,X
5130   29 03      AND #$03
5132   A8         TAY
5133   B9 61 D0   LDA $D061,Y
5136   9D 8A 07   STA $078A,X
5139   4C 49 D1   JMP $D149
513C   C9 01      CMP #$01
513E   D0 09      BNE $5149
5140   D6 CF      DEC $CF,X
5142   20 63 C3   JSR $C363
5145   A9 FE      LDA #$FE
5147   95 A0      STA $A0,X
5149   AD 5F 07   LDA $075F
514C   C9 07      CMP #$07
514E   F0 04      BEQ $5154
5150   C9 05      CMP #$05
5152   B0 27      BCS $517B
5154   AD 90 07   LDA $0790
5157   D0 22      BNE $517B
5159   A9 20      LDA #$20
515B   8D 90 07   STA $0790
515E   AD 63 03   LDA $0363
5161   49 80      EOR #$80
5163   8D 63 03   STA $0363
5166   30 E1      BMI $5149
5168   20 D9 D1   JSR $D1D9
516B   AC CC 06   LDY $06CC
516E   F0 03      BEQ $5173
5170   38         SEC
5171   E9 10      SBC #$10
5173   8D 90 07   STA $0790
5176   A9 15      LDA #$15
5178   8D CB 06   STA $06CB
517B   20 BC D1   JSR $D1BC
517E   A0 10      LDY #$10
5180   B5 46      LDA $46,X
5182   4A         LSR A
5183   90 02      BCC $5187
5185   A0 F0      LDY #$F0
5187   98         TYA
5188   18         CLC
5189   75 87      ADC $87,X
518B   AC CF 06   LDY $06CF
518E   99 87 00   STA $0087,Y
5191   B5 CF      LDA $CF,X
5193   18         CLC
5194   69 08      ADC #$08
5196   99 CF 00   STA $00CF,Y
5199   B5 1E      LDA $1E,X
519B   99 1E 00   STA $001E,Y
519E   B5 46      LDA $46,X
51A0   99 46 00   STA $0046,Y
51A3   A5 08      LDA $08
51A5   48         PHA
51A6   AE CF 06   LDX $06CF
51A9   86 08      STX $08
51AB   A9 2D      LDA #$2D
51AD   95 16      STA $16,X
51AF   20 BC D1   JSR $D1BC
51B2   68         PLA
51B3   85 08      STA $08
51B5   AA         TAX
51B6   A9 00      LDA #$00
51B8   8D 6A 03   STA $036A
51BB   60         RTS
51BC   EE 6A 03   INC $036A
51BF   20 D7 C8   JSR $C8D7
51C2   B5 1E      LDA $1E,X
51C4   D0 F5      BNE $51BB
51C6   A9 0A      LDA #$0A
51C8   9D 9A 04   STA $049A,X
51CB   20 43 E2   JSR $E243
51CE   4C 53 D8   JMP $D853
51D1   BF         ???
51D2   40         RTI
51D3   BF         ???
51D4   BF         ???
51D5   BF         ???
51D6   40         RTI
51D7   40         RTI
51D8   BF         ???
51D9   AC 67 03   LDY $0367
51DC   EE 67 03   INC $0367
51DF   AD 67 03   LDA $0367
51E2   29 07      AND #$07
51E4   8D 67 03   STA $0367
51E7   B9 D1 D1   LDA $D1D1,Y
51EA   60         RTS
51EB   AD 47 07   LDA $0747
51EE   D0 30      BNE $5220
51F0   A9 40      LDA #$40
51F2   AC CC 06   LDY $06CC
51F5   F0 02      BEQ $51F9
51F7   A9 60      LDA #$60
51F9   85 00      STA $00
51FB   BD 01 04   LDA $0401,X
51FE   38         SEC
51FF   E5 00      SBC $00
5201   9D 01 04   STA $0401,X
5204   B5 87      LDA $87,X
5206   E9 01      SBC #$01
5208   95 87      STA $87,X
520A   B5 6E      LDA $6E,X
520C   E9 00      SBC #$00
520E   95 6E      STA $6E,X
5210   BC 17 04   LDY $0417,X
5213   B5 CF      LDA $CF,X
5215   D9 9D C5   CMP $C59D,Y
5218   F0 06      BEQ $5220
521A   18         CLC
521B   7D 34 04   ADC $0434,X
521E   95 CF      STA $CF,X
5220   20 52 F1   JSR $F152
5223   B5 1E      LDA $1E,X
5225   D0 C3      BNE $51EA
5227   A9 51      LDA #$51
5229   85 00      STA $00
522B   A0 02      LDY #$02
522D   A5 09      LDA $09
522F   29 02      AND #$02
5231   F0 02      BEQ $5235
5233   A0 82      LDY #$82
5235   84 01      STY $01
5237   BC E5 06   LDY $06E5,X
523A   A2 00      LDX #$00
523C   AD B9 03   LDA $03B9
523F   99 00 02   STA $0200,Y
5242   A5 00      LDA $00
5244   99 01 02   STA $0201,Y
5247   E6 00      INC $00
5249   A5 01      LDA $01
524B   99 02 02   STA $0202,Y
524E   AD AE 03   LDA $03AE
5251   99 03 02   STA $0203,Y
5254   18         CLC
5255   69 08      ADC #$08
5257   8D AE 03   STA $03AE
525A   C8         INY
525B   C8         INY
525C   C8         INY
525D   C8         INY
525E   E8         INX
525F   E0 03      CPX #$03
5261   90 D9      BCC $523C
5263   A6 08      LDX $08
5265   20 AF F1   JSR $F1AF
5268   BC E5 06   LDY $06E5,X
526B   AD D1 03   LDA $03D1
526E   4A         LSR A
526F   48         PHA
5270   90 05      BCC $5277
5272   A9 F8      LDA #$F8
5274   99 0C 02   STA $020C,Y
5277   68         PLA
5278   4A         LSR A
5279   48         PHA
527A   90 05      BCC $5281
527C   A9 F8      LDA #$F8
527E   99 08 02   STA $0208,Y
5281   68         PLA
5282   4A         LSR A
5283   48         PHA
5284   90 05      BCC $528B
5286   A9 F8      LDA #$F8
5288   99 04 02   STA $0204,Y
528B   68         PLA
528C   4A         LSR A
528D   90 05      BCC $5294
528F   A9 F8      LDA #$F8
5291   99 00 02   STA $0200,Y
5294   60         RTS
5295   D6 A0      DEC $A0,X
5297   D0 0C      BNE $52A5
5299   A9 08      LDA #$08
529B   95 A0      STA $A0,X
529D   F6 58      INC $58,X
529F   B5 58      LDA $58,X
52A1   C9 03      CMP #$03
52A3   B0 18      BCS $52BD
52A5   20 52 F1   JSR $F152
52A8   AD B9 03   LDA $03B9
52AB   8D BA 03   STA $03BA
52AE   AD AE 03   LDA $03AE
52B1   8D AF 03   STA $03AF
52B4   BC E5 06   LDY $06E5,X
52B7   B5 58      LDA $58,X
52B9   20 17 ED   JSR $ED17
52BC   60         RTS
52BD   A9 00      LDA #$00
52BF   95 0F      STA $0F,X
52C1   A9 08      LDA #$08
52C3   85 FE      STA $FE
52C5   A9 05      LDA #$05
52C7   8D 38 01   STA $0138
52CA   4C 36 D3   JMP $D336
52CD   00         BRK
52CE   00         BRK
52CF   08         PHP
52D0   08         PHP
52D1   00         BRK
52D2   08         PHP
52D3   00         BRK
52D4   08         PHP
52D5   54         ???
52D6   55 56      EOR $56,X
52D8   57         ???
52D9   A9 00      LDA #$00
52DB   8D CB 06   STA $06CB
52DE   AD 46 07   LDA $0746
52E1   C9 05      CMP #$05
52E3   B0 2C      BCS $5311
52E5   20 04 8E   JSR $8E04
52E8   11 D3      ORA ($D3),Y
52EA   F2         ???
52EB   D2         ???
52EC   12         ???
52ED   D3         ???
52EE   4E D3 A2   LSR $A2D3
52F1   D3         ???
52F2   A0 05      LDY #$05
52F4   AD FA 07   LDA $07FA
52F7   C9 01      CMP #$01
52F9   F0 0E      BEQ $5309
52FB   A0 03      LDY #$03
52FD   C9 03      CMP #$03
52FF   F0 08      BEQ $5309
5301   A0 00      LDY #$00
5303   C9 06      CMP #$06
5305   F0 02      BEQ $5309
5307   A9 FF      LDA #$FF
5309   8D D7 06   STA $06D7
530C   94 1E      STY $1E,X
530E   EE 46 07   INC $0746
5311   60         RTS
5312   AD F8 07   LDA $07F8
5315   0D F9 07   ORA $07F9
5318   0D FA 07   ORA $07FA
531B   F0 F1      BEQ $530E
531D   A5 09      LDA $09
531F   29 04      AND #$04
5321   F0 04      BEQ $5327
5323   A9 10      LDA #$10
5325   85 FE      STA $FE
5327   A0 23      LDY #$23
5329   A9 FF      LDA #$FF
532B   8D 39 01   STA $0139
532E   20 5F 8F   JSR $8F5F
5331   A9 05      LDA #$05
5333   8D 39 01   STA $0139
5336   A0 0B      LDY #$0B
5338   AD 53 07   LDA $0753
533B   F0 02      BEQ $533F
533D   A0 11      LDY #$11
533F   20 5F 8F   JSR $8F5F
5342   AD 53 07   LDA $0753
5345   0A         ASL A
5346   0A         ASL A
5347   0A         ASL A
5348   0A         ASL A
5349   09 04      ORA #$04
534B   4C 36 BC   JMP $BC36
534E   B5 CF      LDA $CF,X
5350   C9 72      CMP #$72
5352   90 05      BCC $5359
5354   D6 CF      DEC $CF,X
5356   4C 65 D3   JMP $D365
5359   AD D7 06   LDA $06D7
535C   F0 38      BEQ $5396
535E   30 36      BMI $5396
5360   A9 16      LDA #$16
5362   8D CB 06   STA $06CB
5365   20 52 F1   JSR $F152
5368   BC E5 06   LDY $06E5,X
536B   A2 03      LDX #$03
536D   AD B9 03   LDA $03B9
5370   18         CLC
5371   7D CD D2   ADC $D2CD,X
5374   99 00 02   STA $0200,Y
5377   BD D5 D2   LDA $D2D5,X
537A   99 01 02   STA $0201,Y
537D   A9 22      LDA #$22
537F   99 02 02   STA $0202,Y
5382   AD AE 03   LDA $03AE
5385   18         CLC
5386   7D D1 D2   ADC $D2D1,X
5389   99 03 02   STA $0203,Y
538C   C8         INY
538D   C8         INY
538E   C8         INY
538F   C8         INY
5390   CA         DEX
5391   10 DA      BPL $536D
5393   A6 08      LDX $08
5395   60         RTS
5396   20 65 D3   JSR $D365
5399   A9 06      LDA #$06
539B   9D 96 07   STA $0796,X
539E   EE 46 07   INC $0746
53A1   60         RTS
53A2   20 65 D3   JSR $D365
53A5   BD 96 07   LDA $0796,X
53A8   D0 05      BNE $53AF
53AA   AD B1 07   LDA $07B1
53AD   F0 EF      BEQ $539E
53AF   60         RTS
53B0   B5 1E      LDA $1E,X
53B2   D0 56      BNE $540A
53B4   BD 8A 07   LDA $078A,X
53B7   D0 51      BNE $540A
53B9   B5 A0      LDA $A0,X
53BB   D0 23      BNE $53E0
53BD   B5 58      LDA $58,X
53BF   30 14      BMI $53D5
53C1   20 43 E1   JSR $E143
53C4   10 09      BPL $53CF
53C6   A5 00      LDA $00
53C8   49 FF      EOR #$FF
53CA   18         CLC
53CB   69 01      ADC #$01
53CD   85 00      STA $00
53CF   A5 00      LDA $00
53D1   C9 21      CMP #$21
53D3   90 35      BCC $540A
53D5   B5 58      LDA $58,X
53D7   49 FF      EOR #$FF
53D9   18         CLC
53DA   69 01      ADC #$01
53DC   95 58      STA $58,X
53DE   F6 A0      INC $A0,X
53E0   BD 34 04   LDA $0434,X
53E3   B4 58      LDY $58,X
53E5   10 03      BPL $53EA
53E7   BD 17 04   LDA $0417,X
53EA   85 00      STA $00
53EC   A5 09      LDA $09
53EE   4A         LSR A
53EF   90 19      BCC $540A
53F1   AD 47 07   LDA $0747
53F4   D0 14      BNE $540A
53F6   B5 CF      LDA $CF,X
53F8   18         CLC
53F9   75 58      ADC $58,X
53FB   95 CF      STA $CF,X
53FD   C5 00      CMP $00
53FF   D0 09      BNE $540A
5401   A9 00      LDA #$00
5403   95 A0      STA $A0,X
5405   A9 40      LDA #$40
5407   9D 8A 07   STA $078A,X
540A   A9 20      LDA #$20
540C   9D C5 03   STA $03C5,X
540F   60         RTS
5410   85 07      STA $07
5412   B5 34      LDA $34,X
5414   D0 0E      BNE $5424
5416   A0 18      LDY #$18
5418   B5 58      LDA $58,X
541A   18         CLC
541B   65 07      ADC $07
541D   95 58      STA $58,X
541F   B5 A0      LDA $A0,X
5421   69 00      ADC #$00
5423   60         RTS
5424   A0 08      LDY #$08
5426   B5 58      LDA $58,X
5428   38         SEC
5429   E5 07      SBC $07
542B   95 58      STA $58,X
542D   B5 A0      LDA $A0,X
542F   E9 00      SBC #$00
5431   60         RTS
5432   B5 B6      LDA $B6,X
5434   C9 03      CMP #$03
5436   D0 03      BNE $543B
5438   4C 98 C9   JMP $C998
543B   B5 1E      LDA $1E,X
543D   10 01      BPL $5440
543F   60         RTS
5440   A8         TAY
5441   BD A2 03   LDA $03A2,X
5444   85 00      STA $00
5446   B5 46      LDA $46,X
5448   F0 03      BEQ $544D
544A   4C BB D5   JMP $D5BB
544D   A9 2D      LDA #$2D
544F   D5 CF      CMP $CF,X
5451   90 0F      BCC $5462
5453   C4 00      CPY $00
5455   F0 08      BEQ $545F
5457   18         CLC
5458   69 02      ADC #$02
545A   95 CF      STA $CF,X
545C   4C B1 D5   JMP $D5B1
545F   4C 98 D5   JMP $D598
5462   D9 CF 00   CMP $00CF,Y
5465   90 0D      BCC $5474
5467   E4 00      CPX $00
5469   F0 F4      BEQ $545F
546B   18         CLC
546C   69 02      ADC #$02
546E   99 CF 00   STA $00CF,Y
5471   4C B1 D5   JMP $D5B1
5474   B5 CF      LDA $CF,X
5476   48         PHA
5477   BD A2 03   LDA $03A2,X
547A   10 18      BPL $5494
547C   BD 34 04   LDA $0434,X
547F   18         CLC
5480   69 05      ADC #$05
5482   85 00      STA $00
5484   B5 A0      LDA $A0,X
5486   69 00      ADC #$00
5488   30 1A      BMI $54A4
548A   D0 0C      BNE $5498
548C   A5 00      LDA $00
548E   C9 0B      CMP #$0B
5490   90 0C      BCC $549E
5492   B0 04      BCS $5498
5494   C5 08      CMP $08
5496   F0 0C      BEQ $54A4
5498   20 B7 BF   JSR $BFB7
549B   4C A7 D4   JMP $D4A7
549E   20 B1 D5   JSR $D5B1
54A1   4C A7 D4   JMP $D4A7
54A4   20 B4 BF   JSR $BFB4
54A7   B4 1E      LDY $1E,X
54A9   68         PLA
54AA   38         SEC
54AB   F5 CF      SBC $CF,X
54AD   18         CLC
54AE   79 CF 00   ADC $00CF,Y
54B1   99 CF 00   STA $00CF,Y
54B4   BD A2 03   LDA $03A2,X
54B7   30 04      BMI $54BD
54B9   AA         TAX
54BA   20 21 DC   JSR $DC21
54BD   A4 08      LDY $08
54BF   B9 A0 00   LDA $00A0,Y
54C2   19 34 04   ORA $0434,Y
54C5   F0 77      BEQ $553E
54C7   AE 00 03   LDX $0300
54CA   E0 20      CPX #$20
54CC   B0 70      BCS $553E
54CE   B9 A0 00   LDA $00A0,Y
54D1   48         PHA
54D2   48         PHA
54D3   20 41 D5   JSR $D541
54D6   A5 01      LDA $01
54D8   9D 01 03   STA $0301,X
54DB   A5 00      LDA $00
54DD   9D 02 03   STA $0302,X
54E0   A9 02      LDA #$02
54E2   9D 03 03   STA $0303,X
54E5   B9 A0 00   LDA $00A0,Y
54E8   30 0D      BMI $54F7
54EA   A9 A2      LDA #$A2
54EC   9D 04 03   STA $0304,X
54EF   A9 A3      LDA #$A3
54F1   9D 05 03   STA $0305,X
54F4   4C FF D4   JMP $D4FF
54F7   A9 24      LDA #$24
54F9   9D 04 03   STA $0304,X
54FC   9D 05 03   STA $0305,X
54FF   B9 1E 00   LDA $001E,Y
5502   A8         TAY
5503   68         PLA
5504   49 FF      EOR #$FF
5506   20 41 D5   JSR $D541
5509   A5 01      LDA $01
550B   9D 06 03   STA $0306,X
550E   A5 00      LDA $00
5510   9D 07 03   STA $0307,X
5513   A9 02      LDA #$02
5515   9D 08 03   STA $0308,X
5518   68         PLA
5519   10 0D      BPL $5528
551B   A9 A2      LDA #$A2
551D   9D 09 03   STA $0309,X
5520   A9 A3      LDA #$A3
5522   9D 0A 03   STA $030A,X
5525   4C 30 D5   JMP $D530
5528   A9 24      LDA #$24
552A   9D 09 03   STA $0309,X
552D   9D 0A 03   STA $030A,X
5530   A9 00      LDA #$00
5532   9D 0B 03   STA $030B,X
5535   AD 00 03   LDA $0300
5538   18         CLC
5539   69 0A      ADC #$0A
553B   8D 00 03   STA $0300
553E   A6 08      LDX $08
5540   60         RTS
5541   48         PHA
5542   B9 87 00   LDA $0087,Y
5545   18         CLC
5546   69 08      ADC #$08
5548   AE CC 06   LDX $06CC
554B   D0 03      BNE $5550
554D   18         CLC
554E   69 10      ADC #$10
5550   48         PHA
5551   B9 6E 00   LDA $006E,Y
5554   69 00      ADC #$00
5556   85 02      STA $02
5558   68         PLA
5559   29 F0      AND #$F0
555B   4A         LSR A
555C   4A         LSR A
555D   4A         LSR A
555E   85 00      STA $00
5560   B6 CF      LDX $CF,Y
5562   68         PLA
5563   10 05      BPL $556A
5565   8A         TXA
5566   18         CLC
5567   69 08      ADC #$08
5569   AA         TAX
556A   8A         TXA
556B   AE 00 03   LDX $0300
556E   0A         ASL A
556F   2A         ROL A
5570   48         PHA
5571   2A         ROL A
5572   29 03      AND #$03
5574   09 20      ORA #$20
5576   85 01      STA $01
5578   A5 02      LDA $02
557A   29 01      AND #$01
557C   0A         ASL A
557D   0A         ASL A
557E   05 01      ORA $01
5580   85 01      STA $01
5582   68         PLA
5583   29 E0      AND #$E0
5585   18         CLC
5586   65 00      ADC $00
5588   85 00      STA $00
558A   B9 CF 00   LDA $00CF,Y
558D   C9 E8      CMP #$E8
558F   90 06      BCC $5597
5591   A5 00      LDA $00
5593   29 BF      AND #$BF
5595   85 00      STA $00
5597   60         RTS
5598   98         TYA
5599   AA         TAX
559A   20 AF F1   JSR $F1AF
559D   A9 06      LDA #$06
559F   20 11 DA   JSR $DA11
55A2   AD AD 03   LDA $03AD
55A5   9D 17 01   STA $0117,X
55A8   A5 CE      LDA $CE
55AA   9D 1E 01   STA $011E,X
55AD   A9 01      LDA #$01
55AF   95 46      STA $46,X
55B1   20 63 C3   JSR $C363
55B4   99 A0 00   STA $00A0,Y
55B7   99 34 04   STA $0434,Y
55BA   60         RTS
55BB   98         TYA
55BC   48         PHA
55BD   20 6B BF   JSR $BF6B
55C0   68         PLA
55C1   AA         TAX
55C2   20 6B BF   JSR $BF6B
55C5   A6 08      LDX $08
55C7   BD A2 03   LDA $03A2,X
55CA   30 04      BMI $55D0
55CC   AA         TAX
55CD   20 21 DC   JSR $DC21
55D0   A6 08      LDX $08
55D2   60         RTS
55D3   B5 A0      LDA $A0,X
55D5   1D 34 04   ORA $0434,X
55D8   D0 15      BNE $55EF
55DA   9D 17 04   STA $0417,X
55DD   B5 CF      LDA $CF,X
55DF   DD 01 04   CMP $0401,X
55E2   B0 0B      BCS $55EF
55E4   A5 09      LDA $09
55E6   29 07      AND #$07
55E8   D0 02      BNE $55EC
55EA   F6 CF      INC $CF,X
55EC   4C FE D5   JMP $D5FE
55EF   B5 CF      LDA $CF,X
55F1   D5 58      CMP $58,X
55F3   90 06      BCC $55FB
55F5   20 B7 BF   JSR $BFB7
55F8   4C FE D5   JMP $D5FE
55FB   20 B4 BF   JSR $BFB4
55FE   BD A2 03   LDA $03A2,X
5601   30 03      BMI $5606
5603   20 21 DC   JSR $DC21
5606   60         RTS
5607   A9 0E      LDA #$0E
5609   20 47 CB   JSR $CB47
560C   20 66 CB   JSR $CB66
560F   BD A2 03   LDA $03A2,X
5612   30 1C      BMI $5630
5614   A5 86      LDA $86
5616   18         CLC
5617   65 00      ADC $00
5619   85 86      STA $86
561B   A5 6D      LDA $6D
561D   A4 00      LDY $00
561F   30 05      BMI $5626
5621   69 00      ADC #$00
5623   4C 28 D6   JMP $D628
5626   E9 00      SBC #$00
5628   85 6D      STA $6D
562A   8C A1 03   STY $03A1
562D   20 21 DC   JSR $DC21
5630   60         RTS
5631   BD A2 03   LDA $03A2,X
5634   30 06      BMI $563C
5636   20 88 BF   JSR $BF88
5639   20 21 DC   JSR $DC21
563C   60         RTS
563D   20 02 BF   JSR $BF02
5640   85 00      STA $00
5642   BD A2 03   LDA $03A2,X
5645   30 07      BMI $564E
5647   A9 10      LDA #$10
5649   95 58      STA $58,X
564B   20 14 D6   JSR $D614
564E   60         RTS
564F   20 5B D6   JSR $D65B
5652   4C FE D5   JMP $D5FE
5655   20 5B D6   JSR $D65B
5658   4C 71 D6   JMP $D671
565B   AD 47 07   LDA $0747
565E   D0 19      BNE $5679
5660   BD 17 04   LDA $0417,X
5663   18         CLC
5664   7D 34 04   ADC $0434,X
5667   9D 17 04   STA $0417,X
566A   B5 CF      LDA $CF,X
566C   75 A0      ADC $A0,X
566E   95 CF      STA $CF,X
5670   60         RTS
5671   BD A2 03   LDA $03A2,X
5674   F0 03      BEQ $5679
5676   20 19 DC   JSR $DC19
5679   60         RTS
567A   B5 16      LDA $16,X
567C   C9 14      CMP #$14
567E   F0 55      BEQ $56D5
5680   AD 1C 07   LDA $071C
5683   B4 16      LDY $16,X
5685   C0 05      CPY #$05
5687   F0 04      BEQ $568D
5689   C0 0D      CPY #$0D
568B   D0 02      BNE $568F
568D   69 38      ADC #$38
568F   E9 48      SBC #$48
5691   85 01      STA $01
5693   AD 1A 07   LDA $071A
5696   E9 00      SBC #$00
5698   85 00      STA $00
569A   AD 1D 07   LDA $071D
569D   69 48      ADC #$48
569F   85 03      STA $03
56A1   AD 1B 07   LDA $071B
56A4   69 00      ADC #$00
56A6   85 02      STA $02
56A8   B5 87      LDA $87,X
56AA   C5 01      CMP $01
56AC   B5 6E      LDA $6E,X
56AE   E5 00      SBC $00
56B0   30 20      BMI $56D2
56B2   B5 87      LDA $87,X
56B4   C5 03      CMP $03
56B6   B5 6E      LDA $6E,X
56B8   E5 02      SBC $02
56BA   30 19      BMI $56D5
56BC   B5 1E      LDA $1E,X
56BE   C9 05      CMP #$05
56C0   F0 13      BEQ $56D5
56C2   C0 0D      CPY #$0D
56C4   F0 0F      BEQ $56D5
56C6   C0 30      CPY #$30
56C8   F0 0B      BEQ $56D5
56CA   C0 31      CPY #$31
56CC   F0 07      BEQ $56D5
56CE   C0 32      CPY #$32
56D0   F0 03      BEQ $56D5
56D2   20 98 C9   JSR $C998
56D5   60         RTS
56D6   FF         ???
56D7   FF         ???
56D8   FF         ???
56D9   B5 24      LDA $24,X
56DB   F0 56      BEQ $5733
56DD   0A         ASL A
56DE   B0 53      BCS $5733
56E0   A5 09      LDA $09
56E2   4A         LSR A
56E3   B0 4E      BCS $5733
56E5   8A         TXA
56E6   0A         ASL A
56E7   0A         ASL A
56E8   18         CLC
56E9   69 1C      ADC #$1C
56EB   A8         TAY
56EC   A2 04      LDX #$04
56EE   86 01      STX $01
56F0   98         TYA
56F1   48         PHA
56F2   B5 1E      LDA $1E,X
56F4   29 20      AND #$20
56F6   D0 34      BNE $572C
56F8   B5 0F      LDA $0F,X
56FA   F0 30      BEQ $572C
56FC   B5 16      LDA $16,X
56FE   C9 24      CMP #$24
5700   90 04      BCC $5706
5702   C9 2B      CMP #$2B
5704   90 26      BCC $572C
5706   C9 06      CMP #$06
5708   D0 06      BNE $5710
570A   B5 1E      LDA $1E,X
570C   C9 02      CMP #$02
570E   B0 1C      BCS $572C
5710   BD D8 03   LDA $03D8,X
5713   D0 17      BNE $572C
5715   8A         TXA
5716   0A         ASL A
5717   0A         ASL A
5718   18         CLC
5719   69 04      ADC #$04
571B   AA         TAX
571C   20 27 E3   JSR $E327
571F   A6 08      LDX $08
5721   90 09      BCC $572C
5723   A9 80      LDA #$80
5725   95 24      STA $24,X
5727   A6 01      LDX $01
5729   20 3E D7   JSR $D73E
572C   68         PLA
572D   A8         TAY
572E   A6 01      LDX $01
5730   CA         DEX
5731   10 BB      BPL $56EE
5733   A6 08      LDX $08
5735   60         RTS
5736   06 00      ASL $00
5738   02         ???
5739   12         ???
573A   11 07      ORA ($07),Y
573C   05 2D      ORA $2D
573E   20 52 F1   JSR $F152
5741   A6 01      LDX $01
5743   B5 0F      LDA $0F,X
5745   10 0B      BPL $5752
5747   29 0F      AND #$0F
5749   AA         TAX
574A   B5 16      LDA $16,X
574C   C9 2D      CMP #$2D
574E   F0 0C      BEQ $575C
5750   A6 01      LDX $01
5752   B5 16      LDA $16,X
5754   C9 02      CMP #$02
5756   F0 6B      BEQ $57C3
5758   C9 2D      CMP #$2D
575A   D0 2D      BNE $5789
575C   CE 83 04   DEC $0483
575F   D0 62      BNE $57C3
5761   20 63 C3   JSR $C363
5764   95 58      STA $58,X
5766   8D CB 06   STA $06CB
5769   A9 FE      LDA #$FE
576B   95 A0      STA $A0,X
576D   AC 5F 07   LDY $075F
5770   B9 36 D7   LDA $D736,Y
5773   95 16      STA $16,X
5775   A9 20      LDA #$20
5777   C0 03      CPY #$03
5779   B0 02      BCS $577D
577B   09 03      ORA #$03
577D   95 1E      STA $1E,X
577F   A9 80      LDA #$80
5781   85 FE      STA $FE
5783   A6 01      LDX $01
5785   A9 09      LDA #$09
5787   D0 33      BNE $57BC
5789   C9 08      CMP #$08
578B   F0 36      BEQ $57C3
578D   C9 0C      CMP #$0C
578F   F0 32      BEQ $57C3
5791   C9 15      CMP #$15
5793   B0 2E      BCS $57C3
5795   B5 16      LDA $16,X
5797   C9 0D      CMP #$0D
5799   D0 06      BNE $57A1
579B   B5 CF      LDA $CF,X
579D   69 18      ADC #$18
579F   95 CF      STA $CF,X
57A1   20 1B E0   JSR $E01B
57A4   B5 1E      LDA $1E,X
57A6   29 1F      AND #$1F
57A8   09 20      ORA #$20
57AA   95 1E      STA $1E,X
57AC   A9 02      LDA #$02
57AE   B4 16      LDY $16,X
57B0   C0 05      CPY #$05
57B2   D0 02      BNE $57B6
57B4   A9 06      LDA #$06
57B6   C0 06      CPY #$06
57B8   D0 02      BNE $57BC
57BA   A9 01      LDA #$01
57BC   20 11 DA   JSR $DA11
57BF   A9 08      LDA #$08
57C1   85 FF      STA $FF
57C3   60         RTS
57C4   A5 09      LDA $09
57C6   4A         LSR A
57C7   90 36      BCC $57FF
57C9   AD 47 07   LDA $0747
57CC   0D D6 03   ORA $03D6
57CF   D0 2E      BNE $57FF
57D1   8A         TXA
57D2   0A         ASL A
57D3   0A         ASL A
57D4   18         CLC
57D5   69 24      ADC #$24
57D7   A8         TAY
57D8   20 25 E3   JSR $E325
57DB   A6 08      LDX $08
57DD   90 1B      BCC $57FA
57DF   BD BE 06   LDA $06BE,X
57E2   D0 1B      BNE $57FF
57E4   A9 01      LDA #$01
57E6   9D BE 06   STA $06BE,X
57E9   B5 64      LDA $64,X
57EB   49 FF      EOR #$FF
57ED   18         CLC
57EE   69 01      ADC #$01
57F0   95 64      STA $64,X
57F2   AD 9F 07   LDA $079F
57F5   D0 08      BNE $57FF
57F7   4C 2C D9   JMP $D92C
57FA   A9 00      LDA #$00
57FC   9D BE 06   STA $06BE,X
57FF   60         RTS
5800   20 98 C9   JSR $C998
5803   A9 06      LDA #$06
5805   20 11 DA   JSR $DA11
5808   A9 20      LDA #$20
580A   85 FE      STA $FE
580C   A5 39      LDA $39
580E   C9 02      CMP #$02
5810   90 0E      BCC $5820
5812   C9 03      CMP #$03
5814   F0 24      BEQ $583A
5816   A9 23      LDA #$23
5818   8D 9F 07   STA $079F
581B   A9 40      LDA #$40
581D   85 FB      STA $FB
581F   60         RTS
5820   AD 56 07   LDA $0756
5823   F0 1B      BEQ $5840
5825   C9 01      CMP #$01
5827   D0 23      BNE $584C
5829   A6 08      LDX $08
582B   A9 02      LDA #$02
582D   8D 56 07   STA $0756
5830   20 F1 85   JSR $85F1
5833   A6 08      LDX $08
5835   A9 0C      LDA #$0C
5837   4C 47 D8   JMP $D847
583A   A9 0B      LDA #$0B
583C   9D 10 01   STA $0110,X
583F   60         RTS
5840   A9 01      LDA #$01
5842   8D 56 07   STA $0756
5845   A9 09      LDA #$09
5847   A0 00      LDY #$00
5849   20 48 D9   JSR $D948
584C   60         RTS
584D   18         CLC
584E   E8         INX
584F   30 D0      BMI $5821
5851   08         PHP
5852   F8         SED
5853   A5 09      LDA $09
5855   4A         LSR A
5856   B0 F4      BCS $584C
5858   20 41 DC   JSR $DC41
585B   B0 23      BCS $5880
585D   BD D8 03   LDA $03D8,X
5860   D0 1E      BNE $5880
5862   A5 0E      LDA $0E
5864   C9 08      CMP #$08
5866   D0 18      BNE $5880
5868   B5 1E      LDA $1E,X
586A   29 20      AND #$20
586C   D0 12      BNE $5880
586E   20 52 DC   JSR $DC52
5871   20 25 E3   JSR $E325
5874   A6 08      LDX $08
5876   B0 09      BCS $5881
5878   BD 91 04   LDA $0491,X
587B   29 FE      AND #$FE
587D   9D 91 04   STA $0491,X
5880   60         RTS
5881   B4 16      LDY $16,X
5883   C0 2E      CPY #$2E
5885   D0 03      BNE $588A
5887   4C 00 D8   JMP $D800
588A   AD 9F 07   LDA $079F
588D   F0 06      BEQ $5895
588F   4C 95 D7   JMP $D795
5892   0A         ASL A
5893   06 04      ASL $04
5895   BD 91 04   LDA $0491,X
5898   29 01      AND #$01
589A   1D D8 03   ORA $03D8,X
589D   D0 59      BNE $58F8
589F   A9 01      LDA #$01
58A1   1D 91 04   ORA $0491,X
58A4   9D 91 04   STA $0491,X
58A7   C0 12      CPY #$12
58A9   F0 4E      BEQ $58F9
58AB   C0 0D      CPY #$0D
58AD   F0 7D      BEQ $592C
58AF   C0 0C      CPY #$0C
58B1   F0 79      BEQ $592C
58B3   C0 33      CPY #$33
58B5   F0 42      BEQ $58F9
58B7   C0 15      CPY #$15
58B9   B0 71      BCS $592C
58BB   AD 4E 07   LDA $074E
58BE   F0 6C      BEQ $592C
58C0   B5 1E      LDA $1E,X
58C2   0A         ASL A
58C3   B0 34      BCS $58F9
58C5   B5 1E      LDA $1E,X
58C7   29 07      AND #$07
58C9   C9 02      CMP #$02
58CB   90 2C      BCC $58F9
58CD   B5 16      LDA $16,X
58CF   C9 06      CMP #$06
58D1   F0 25      BEQ $58F8
58D3   A9 08      LDA #$08
58D5   85 FF      STA $FF
58D7   B5 1E      LDA $1E,X
58D9   09 80      ORA #$80
58DB   95 1E      STA $1E,X
58DD   20 05 DA   JSR $DA05
58E0   B9 4F D8   LDA $D84F,Y
58E3   95 58      STA $58,X
58E5   A9 03      LDA #$03
58E7   18         CLC
58E8   6D 84 04   ADC $0484
58EB   BC 96 07   LDY $0796,X
58EE   C0 03      CPY #$03
58F0   B0 03      BCS $58F5
58F2   B9 92 D8   LDA $D892,Y
58F5   20 11 DA   JSR $DA11
58F8   60         RTS
58F9   A5 9F      LDA $9F
58FB   30 02      BMI $58FF
58FD   D0 6A      BNE $5969
58FF   B5 16      LDA $16,X
5901   C9 07      CMP #$07
5903   90 09      BCC $590E
5905   A5 CE      LDA $CE
5907   18         CLC
5908   69 0C      ADC #$0C
590A   D5 CF      CMP $CF,X
590C   90 5B      BCC $5969
590E   AD 91 07   LDA $0791
5911   D0 56      BNE $5969
5913   AD 9E 07   LDA $079E
5916   D0 3D      BNE $5955
5918   AD AD 03   LDA $03AD
591B   CD AE 03   CMP $03AE
591E   90 03      BCC $5923
5920   4C F6 D9   JMP $D9F6
5923   B5 46      LDA $46,X
5925   C9 01      CMP #$01
5927   D0 03      BNE $592C
5929   4C FF D9   JMP $D9FF
592C   AD 9E 07   LDA $079E
592F   D0 24      BNE $5955
5931   AE 56 07   LDX $0756
5934   F0 22      BEQ $5958
5936   8D 56 07   STA $0756
5939   A9 08      LDA #$08
593B   8D 9E 07   STA $079E
593E   0A         ASL A
593F   85 FF      STA $FF
5941   20 F1 85   JSR $85F1
5944   A9 0A      LDA #$0A
5946   A0 01      LDY #$01
5948   85 0E      STA $0E
594A   84 1D      STY $1D
594C   A0 FF      LDY #$FF
594E   8C 47 07   STY $0747
5951   C8         INY
5952   8C 75 07   STY $0775
5955   A6 08      LDX $08
5957   60         RTS
5958   86 57      STX $57
595A   E8         INX
595B   86 FC      STX $FC
595D   A9 FC      LDA #$FC
595F   85 9F      STA $9F
5961   A9 0B      LDA #$0B
5963   D0 E1      BNE $5946
5965   02         ???
5966   06 05      ASL $05
5968   06 B5      ASL $B5
596A   16 C9      ASL $C9,X
596C   12         ???
596D   F0 BD      BEQ $592C
596F   A9 04      LDA #$04
5971   85 FF      STA $FF
5973   B5 16      LDA $16,X
5975   A0 00      LDY #$00
5977   C9 14      CMP #$14
5979   F0 1B      BEQ $5996
597B   C9 08      CMP #$08
597D   F0 17      BEQ $5996
597F   C9 33      CMP #$33
5981   F0 13      BEQ $5996
5983   C9 0C      CMP #$0C
5985   F0 0F      BEQ $5996
5987   C8         INY
5988   C9 05      CMP #$05
598A   F0 0A      BEQ $5996
598C   C8         INY
598D   C9 11      CMP #$11
598F   F0 05      BEQ $5996
5991   C8         INY
5992   C9 07      CMP #$07
5994   D0 1D      BNE $59B3
5996   B9 65 D9   LDA $D965,Y
5999   20 11 DA   JSR $DA11
599C   B5 46      LDA $46,X
599E   48         PHA
599F   20 2F E0   JSR $E02F
59A2   68         PLA
59A3   95 46      STA $46,X
59A5   A9 20      LDA #$20
59A7   95 1E      STA $1E,X
59A9   20 63 C3   JSR $C363
59AC   95 58      STA $58,X
59AE   A9 FD      LDA #$FD
59B0   85 9F      STA $9F
59B2   60         RTS
59B3   C9 09      CMP #$09
59B5   90 1D      BCC $59D4
59B7   29 01      AND #$01
59B9   95 16      STA $16,X
59BB   A0 00      LDY #$00
59BD   94 1E      STY $1E,X
59BF   A9 03      LDA #$03
59C1   20 11 DA   JSR $DA11
59C4   20 63 C3   JSR $C363
59C7   20 05 DA   JSR $DA05
59CA   B9 51 D8   LDA $D851,Y
59CD   95 58      STA $58,X
59CF   4C F1 D9   JMP $D9F1
59D2   10 0B      BPL $59DF
59D4   A9 04      LDA #$04
59D6   95 1E      STA $1E,X
59D8   EE 84 04   INC $0484
59DB   AD 84 04   LDA $0484
59DE   18         CLC
59DF   6D 91 07   ADC $0791
59E2   20 11 DA   JSR $DA11
59E5   EE 91 07   INC $0791
59E8   AC 6A 07   LDY $076A
59EB   B9 D2 D9   LDA $D9D2,Y
59EE   9D 96 07   STA $0796,X
59F1   A9 FC      LDA #$FC
59F3   85 9F      STA $9F
59F5   60         RTS
59F6   B5 46      LDA $46,X
59F8   C9 01      CMP #$01
59FA   D0 03      BNE $59FF
59FC   4C 2C D9   JMP $D92C
59FF   20 1C DB   JSR $DB1C
5A02   4C 2C D9   JMP $D92C
5A05   A0 01      LDY #$01
5A07   20 43 E1   JSR $E143
5A0A   10 01      BPL $5A0D
5A0C   C8         INY
5A0D   94 46      STY $46,X
5A0F   88         DEY
5A10   60         RTS
5A11   9D 10 01   STA $0110,X
5A14   A9 30      LDA #$30
5A16   9D 2C 01   STA $012C,X
5A19   B5 CF      LDA $CF,X
5A1B   9D 1E 01   STA $011E,X
5A1E   AD AE 03   LDA $03AE
5A21   9D 17 01   STA $0117,X
5A24   60         RTS
5A25   80         ???
5A26   40         RTI
5A27   20 10 08   JSR $0810
5A2A   04         ???
5A2B   02         ???
5A2C   7F         ???
5A2D   BF         ???
5A2E   DF         ???
5A2F   EF         ???
5A30   F7         ???
5A31   FB         ???
5A32   FD A5 09   SBC $09A5,X
5A35   4A         LSR A
5A36   90 EC      BCC $5A24
5A38   AD 4E 07   LDA $074E
5A3B   F0 E7      BEQ $5A24
5A3D   B5 16      LDA $16,X
5A3F   C9 15      CMP #$15
5A41   B0 6E      BCS $5AB1
5A43   C9 11      CMP #$11
5A45   F0 6A      BEQ $5AB1
5A47   C9 0D      CMP #$0D
5A49   F0 66      BEQ $5AB1
5A4B   BD D8 03   LDA $03D8,X
5A4E   D0 61      BNE $5AB1
5A50   20 52 DC   JSR $DC52
5A53   CA         DEX
5A54   30 5B      BMI $5AB1
5A56   86 01      STX $01
5A58   98         TYA
5A59   48         PHA
5A5A   B5 0F      LDA $0F,X
5A5C   F0 4C      BEQ $5AAA
5A5E   B5 16      LDA $16,X
5A60   C9 15      CMP #$15
5A62   B0 46      BCS $5AAA
5A64   C9 11      CMP #$11
5A66   F0 42      BEQ $5AAA
5A68   C9 0D      CMP #$0D
5A6A   F0 3E      BEQ $5AAA
5A6C   BD D8 03   LDA $03D8,X
5A6F   D0 39      BNE $5AAA
5A71   8A         TXA
5A72   0A         ASL A
5A73   0A         ASL A
5A74   18         CLC
5A75   69 04      ADC #$04
5A77   AA         TAX
5A78   20 27 E3   JSR $E327
5A7B   A6 08      LDX $08
5A7D   A4 01      LDY $01
5A7F   90 20      BCC $5AA1
5A81   B5 1E      LDA $1E,X
5A83   19 1E 00   ORA $001E,Y
5A86   29 80      AND #$80
5A88   D0 11      BNE $5A9B
5A8A   B9 91 04   LDA $0491,Y
5A8D   3D 25 DA   AND $DA25,X
5A90   D0 18      BNE $5AAA
5A92   B9 91 04   LDA $0491,Y
5A95   1D 25 DA   ORA $DA25,X
5A98   99 91 04   STA $0491,Y
5A9B   20 B4 DA   JSR $DAB4
5A9E   4C AA DA   JMP $DAAA
5AA1   B9 91 04   LDA $0491,Y
5AA4   3D 2C DA   AND $DA2C,X
5AA7   99 91 04   STA $0491,Y
5AAA   68         PLA
5AAB   A8         TAY
5AAC   A6 01      LDX $01
5AAE   CA         DEX
5AAF   10 A5      BPL $5A56
5AB1   A6 08      LDX $08
5AB3   60         RTS
5AB4   B9 1E 00   LDA $001E,Y
5AB7   15 1E      ORA $1E,X
5AB9   29 20      AND #$20
5ABB   D0 33      BNE $5AF0
5ABD   B5 1E      LDA $1E,X
5ABF   C9 06      CMP #$06
5AC1   90 2E      BCC $5AF1
5AC3   B5 16      LDA $16,X
5AC5   C9 05      CMP #$05
5AC7   F0 27      BEQ $5AF0
5AC9   B9 1E 00   LDA $001E,Y
5ACC   0A         ASL A
5ACD   90 0A      BCC $5AD9
5ACF   A9 06      LDA #$06
5AD1   20 11 DA   JSR $DA11
5AD4   20 95 D7   JSR $D795
5AD7   A4 01      LDY $01
5AD9   98         TYA
5ADA   AA         TAX
5ADB   20 95 D7   JSR $D795
5ADE   A6 08      LDX $08
5AE0   BD 25 01   LDA $0125,X
5AE3   18         CLC
5AE4   69 04      ADC #$04
5AE6   A6 01      LDX $01
5AE8   20 11 DA   JSR $DA11
5AEB   A6 08      LDX $08
5AED   FE 25 01   INC $0125,X
5AF0   60         RTS
5AF1   B9 1E 00   LDA $001E,Y
5AF4   C9 06      CMP #$06
5AF6   90 1D      BCC $5B15
5AF8   B9 16 00   LDA $0016,Y
5AFB   C9 05      CMP #$05
5AFD   F0 F1      BEQ $5AF0
5AFF   20 95 D7   JSR $D795
5B02   A4 01      LDY $01
5B04   B9 25 01   LDA $0125,Y
5B07   18         CLC
5B08   69 04      ADC #$04
5B0A   A6 08      LDX $08
5B0C   20 11 DA   JSR $DA11
5B0F   A6 01      LDX $01
5B11   FE 25 01   INC $0125,X
5B14   60         RTS
5B15   98         TYA
5B16   AA         TAX
5B17   20 1C DB   JSR $DB1C
5B1A   A6 08      LDX $08
5B1C   B5 16      LDA $16,X
5B1E   C9 0D      CMP #$0D
5B20   F0 22      BEQ $5B44
5B22   C9 11      CMP #$11
5B24   F0 1E      BEQ $5B44
5B26   C9 05      CMP #$05
5B28   F0 1A      BEQ $5B44
5B2A   C9 12      CMP #$12
5B2C   F0 08      BEQ $5B36
5B2E   C9 0E      CMP #$0E
5B30   F0 04      BEQ $5B36
5B32   C9 07      CMP #$07
5B34   B0 0E      BCS $5B44
5B36   B5 58      LDA $58,X
5B38   49 FF      EOR #$FF
5B3A   A8         TAY
5B3B   C8         INY
5B3C   94 58      STY $58,X
5B3E   B5 46      LDA $46,X
5B40   49 03      EOR #$03
5B42   95 46      STA $46,X
5B44   60         RTS
5B45   A9 FF      LDA #$FF
5B47   9D A2 03   STA $03A2,X
5B4A   AD 47 07   LDA $0747
5B4D   D0 29      BNE $5B78
5B4F   B5 1E      LDA $1E,X
5B51   30 25      BMI $5B78
5B53   B5 16      LDA $16,X
5B55   C9 24      CMP #$24
5B57   D0 06      BNE $5B5F
5B59   B5 1E      LDA $1E,X
5B5B   AA         TAX
5B5C   20 5F DB   JSR $DB5F
5B5F   20 41 DC   JSR $DC41
5B62   B0 14      BCS $5B78
5B64   8A         TXA
5B65   20 54 DC   JSR $DC54
5B68   B5 CF      LDA $CF,X
5B6A   85 00      STA $00
5B6C   8A         TXA
5B6D   48         PHA
5B6E   20 25 E3   JSR $E325
5B71   68         PLA
5B72   AA         TAX
5B73   90 03      BCC $5B78
5B75   20 BC DB   JSR $DBBC
5B78   A6 08      LDX $08
5B7A   60         RTS
5B7B   AD 47 07   LDA $0747
5B7E   D0 37      BNE $5BB7
5B80   9D A2 03   STA $03A2,X
5B83   20 41 DC   JSR $DC41
5B86   B0 2F      BCS $5BB7
5B88   A9 02      LDA #$02
5B8A   85 00      STA $00
5B8C   A6 08      LDX $08
5B8E   20 52 DC   JSR $DC52
5B91   29 02      AND #$02
5B93   D0 22      BNE $5BB7
5B95   B9 AD 04   LDA $04AD,Y
5B98   C9 20      CMP #$20
5B9A   90 05      BCC $5BA1
5B9C   20 25 E3   JSR $E325
5B9F   B0 19      BCS $5BBA
5BA1   B9 AD 04   LDA $04AD,Y
5BA4   18         CLC
5BA5   69 80      ADC #$80
5BA7   99 AD 04   STA $04AD,Y
5BAA   B9 AF 04   LDA $04AF,Y
5BAD   18         CLC
5BAE   69 80      ADC #$80
5BB0   99 AF 04   STA $04AF,Y
5BB3   C6 00      DEC $00
5BB5   D0 D5      BNE $5B8C
5BB7   A6 08      LDX $08
5BB9   60         RTS
5BBA   A6 08      LDX $08
5BBC   B9 AF 04   LDA $04AF,Y
5BBF   38         SEC
5BC0   ED AD 04   SBC $04AD
5BC3   C9 04      CMP #$04
5BC5   B0 08      BCS $5BCF
5BC7   A5 9F      LDA $9F
5BC9   10 04      BPL $5BCF
5BCB   A9 01      LDA #$01
5BCD   85 9F      STA $9F
5BCF   AD AF 04   LDA $04AF
5BD2   38         SEC
5BD3   F9 AD 04   SBC $04AD,Y
5BD6   C9 06      CMP #$06
5BD8   B0 1B      BCS $5BF5
5BDA   A5 9F      LDA $9F
5BDC   30 17      BMI $5BF5
5BDE   A5 00      LDA $00
5BE0   B4 16      LDY $16,X
5BE2   C0 2B      CPY #$2B
5BE4   F0 05      BEQ $5BEB
5BE6   C0 2C      CPY #$2C
5BE8   F0 01      BEQ $5BEB
5BEA   8A         TXA
5BEB   A6 08      LDX $08
5BED   9D A2 03   STA $03A2,X
5BF0   A9 00      LDA #$00
5BF2   85 1D      STA $1D
5BF4   60         RTS
5BF5   A9 01      LDA #$01
5BF7   85 00      STA $00
5BF9   AD AE 04   LDA $04AE
5BFC   38         SEC
5BFD   F9 AC 04   SBC $04AC,Y
5C00   C9 08      CMP #$08
5C02   90 0D      BCC $5C11
5C04   E6 00      INC $00
5C06   B9 AE 04   LDA $04AE,Y
5C09   18         CLC
5C0A   ED AC 04   SBC $04AC
5C0D   C9 09      CMP #$09
5C0F   B0 03      BCS $5C14
5C11   20 4B DF   JSR $DF4B
5C14   A6 08      LDX $08
5C16   60         RTS
5C17   80         ???
5C18   00         BRK
5C19   A8         TAY
5C1A   B5 CF      LDA $CF,X
5C1C   18         CLC
5C1D   79 16 DC   ADC $DC16,Y
5C20   2C B5 CF   BIT $CFB5
5C23   A4 0E      LDY $0E
5C25   C0 0B      CPY #$0B
5C27   F0 17      BEQ $5C40
5C29   B4 B6      LDY $B6,X
5C2B   C0 01      CPY #$01
5C2D   D0 11      BNE $5C40
5C2F   38         SEC
5C30   E9 20      SBC #$20
5C32   85 CE      STA $CE
5C34   98         TYA
5C35   E9 00      SBC #$00
5C37   85 B5      STA $B5
5C39   A9 00      LDA #$00
5C3B   85 9F      STA $9F
5C3D   8D 33 04   STA $0433
5C40   60         RTS
5C41   AD D0 03   LDA $03D0
5C44   C9 F0      CMP #$F0
5C46   B0 09      BCS $5C51
5C48   A4 B5      LDY $B5
5C4A   88         DEY
5C4B   D0 04      BNE $5C51
5C4D   A5 CE      LDA $CE
5C4F   C9 D0      CMP #$D0
5C51   60         RTS
5C52   A5 08      LDA $08
5C54   0A         ASL A
5C55   0A         ASL A
5C56   18         CLC
5C57   69 04      ADC #$04
5C59   A8         TAY
5C5A   AD D1 03   LDA $03D1
5C5D   29 0F      AND #$0F
5C5F   C9 0F      CMP #$0F
5C61   60         RTS
5C62   20 10 AD   JSR $AD10
5C65   16 07      ASL $07,X
5C67   D0 2E      BNE $5C97
5C69   A5 0E      LDA $0E
5C6B   C9 0B      CMP #$0B
5C6D   F0 28      BEQ $5C97
5C6F   C9 04      CMP #$04
5C71   90 24      BCC $5C97
5C73   A9 01      LDA #$01
5C75   AC 04 07   LDY $0704
5C78   D0 0A      BNE $5C84
5C7A   A5 1D      LDA $1D
5C7C   F0 04      BEQ $5C82
5C7E   C9 03      CMP #$03
5C80   D0 04      BNE $5C86
5C82   A9 02      LDA #$02
5C84   85 1D      STA $1D
5C86   A5 B5      LDA $B5
5C88   C9 01      CMP #$01
5C8A   D0 0B      BNE $5C97
5C8C   A9 FF      LDA #$FF
5C8E   8D 90 04   STA $0490
5C91   A5 CE      LDA $CE
5C93   C9 CF      CMP #$CF
5C95   90 01      BCC $5C98
5C97   60         RTS
5C98   A0 02      LDY #$02
5C9A   AD 14 07   LDA $0714
5C9D   D0 0C      BNE $5CAB
5C9F   AD 54 07   LDA $0754
5CA2   D0 07      BNE $5CAB
5CA4   88         DEY
5CA5   AD 04 07   LDA $0704
5CA8   D0 01      BNE $5CAB
5CAA   88         DEY
5CAB   B9 AD E3   LDA $E3AD,Y
5CAE   85 EB      STA $EB
5CB0   A8         TAY
5CB1   AE 54 07   LDX $0754
5CB4   AD 14 07   LDA $0714
5CB7   F0 01      BEQ $5CBA
5CB9   E8         INX
5CBA   A5 CE      LDA $CE
5CBC   DD 62 DC   CMP $DC62,X
5CBF   90 35      BCC $5CF6
5CC1   20 E9 E3   JSR $E3E9
5CC4   F0 30      BEQ $5CF6
5CC6   20 A1 DF   JSR $DFA1
5CC9   B0 4F      BCS $5D1A
5CCB   A4 9F      LDY $9F
5CCD   10 27      BPL $5CF6
5CCF   A4 04      LDY $04
5CD1   C0 04      CPY #$04
5CD3   90 21      BCC $5CF6
5CD5   20 8F DF   JSR $DF8F
5CD8   B0 10      BCS $5CEA
5CDA   AC 4E 07   LDY $074E
5CDD   F0 13      BEQ $5CF2
5CDF   AC 84 07   LDY $0784
5CE2   D0 0E      BNE $5CF2
5CE4   20 ED BC   JSR $BCED
5CE7   4C F6 DC   JMP $DCF6
5CEA   C9 26      CMP #$26
5CEC   F0 04      BEQ $5CF2
5CEE   A9 02      LDA #$02
5CF0   85 FF      STA $FF
5CF2   A9 01      LDA #$01
5CF4   85 9F      STA $9F
5CF6   A4 EB      LDY $EB
5CF8   A5 CE      LDA $CE
5CFA   C9 CF      CMP #$CF
5CFC   B0 60      BCS $5D5E
5CFE   20 E8 E3   JSR $E3E8
5D01   20 A1 DF   JSR $DFA1
5D04   B0 14      BCS $5D1A
5D06   48         PHA
5D07   20 E8 E3   JSR $E3E8
5D0A   85 00      STA $00
5D0C   68         PLA
5D0D   85 01      STA $01
5D0F   D0 0C      BNE $5D1D
5D11   A5 00      LDA $00
5D13   F0 49      BEQ $5D5E
5D15   20 A1 DF   JSR $DFA1
5D18   90 03      BCC $5D1D
5D1A   4C 05 DE   JMP $DE05
5D1D   20 9A DF   JSR $DF9A
5D20   B0 3C      BCS $5D5E
5D22   A4 9F      LDY $9F
5D24   30 38      BMI $5D5E
5D26   C9 C5      CMP #$C5
5D28   D0 03      BNE $5D2D
5D2A   4C 0E DE   JMP $DE0E
5D2D   20 BD DE   JSR $DEBD
5D30   F0 2C      BEQ $5D5E
5D32   AC 0E 07   LDY $070E
5D35   D0 23      BNE $5D5A
5D37   A4 04      LDY $04
5D39   C0 05      CPY #$05
5D3B   90 07      BCC $5D44
5D3D   A5 45      LDA $45
5D3F   85 00      STA $00
5D41   4C 4B DF   JMP $DF4B
5D44   20 C4 DE   JSR $DEC4
5D47   A9 F0      LDA #$F0
5D49   25 CE      AND $CE
5D4B   85 CE      STA $CE
5D4D   20 E8 DE   JSR $DEE8
5D50   A9 00      LDA #$00
5D52   85 9F      STA $9F
5D54   8D 33 04   STA $0433
5D57   8D 84 04   STA $0484
5D5A   A9 00      LDA #$00
5D5C   85 1D      STA $1D
5D5E   A4 EB      LDY $EB
5D60   C8         INY
5D61   C8         INY
5D62   A9 02      LDA #$02
5D64   85 00      STA $00
5D66   C8         INY
5D67   84 EB      STY $EB
5D69   A5 CE      LDA $CE
5D6B   C9 20      CMP #$20
5D6D   90 16      BCC $5D85
5D6F   C9 E4      CMP #$E4
5D71   B0 28      BCS $5D9B
5D73   20 EC E3   JSR $E3EC
5D76   F0 0D      BEQ $5D85
5D78   C9 1C      CMP #$1C
5D7A   F0 09      BEQ $5D85
5D7C   C9 6B      CMP #$6B
5D7E   F0 05      BEQ $5D85
5D80   20 9A DF   JSR $DF9A
5D83   90 17      BCC $5D9C
5D85   A4 EB      LDY $EB
5D87   C8         INY
5D88   A5 CE      LDA $CE
5D8A   C9 08      CMP #$08
5D8C   90 0D      BCC $5D9B
5D8E   C9 D0      CMP #$D0
5D90   B0 09      BCS $5D9B
5D92   20 EC E3   JSR $E3EC
5D95   D0 05      BNE $5D9C
5D97   C6 00      DEC $00
5D99   D0 CB      BNE $5D66
5D9B   60         RTS
5D9C   20 BD DE   JSR $DEBD
5D9F   F0 61      BEQ $5E02
5DA1   20 9A DF   JSR $DF9A
5DA4   90 03      BCC $5DA9
5DA6   4C 2E DE   JMP $DE2E
5DA9   20 A1 DF   JSR $DFA1
5DAC   B0 57      BCS $5E05
5DAE   20 DD DE   JSR $DEDD
5DB1   90 08      BCC $5DBB
5DB3   AD 0E 07   LDA $070E
5DB6   D0 4A      BNE $5E02
5DB8   4C FF DD   JMP $DDFF
5DBB   A4 1D      LDY $1D
5DBD   C0 00      CPY #$00
5DBF   D0 3E      BNE $5DFF
5DC1   A4 33      LDY $33
5DC3   88         DEY
5DC4   D0 39      BNE $5DFF
5DC6   C9 6C      CMP #$6C
5DC8   F0 04      BEQ $5DCE
5DCA   C9 1F      CMP #$1F
5DCC   D0 31      BNE $5DFF
5DCE   AD C4 03   LDA $03C4
5DD1   D0 04      BNE $5DD7
5DD3   A0 10      LDY #$10
5DD5   84 FF      STY $FF
5DD7   09 20      ORA #$20
5DD9   8D C4 03   STA $03C4
5DDC   A5 86      LDA $86
5DDE   29 0F      AND #$0F
5DE0   F0 0E      BEQ $5DF0
5DE2   A0 00      LDY #$00
5DE4   AD 1A 07   LDA $071A
5DE7   F0 01      BEQ $5DEA
5DE9   C8         INY
5DEA   B9 03 DE   LDA $DE03,Y
5DED   8D DE 06   STA $06DE
5DF0   A5 0E      LDA $0E
5DF2   C9 07      CMP #$07
5DF4   F0 0C      BEQ $5E02
5DF6   C9 08      CMP #$08
5DF8   D0 08      BNE $5E02
5DFA   A9 02      LDA #$02
5DFC   85 0E      STA $0E
5DFE   60         RTS
5DFF   20 4B DF   JSR $DF4B
5E02   60         RTS
5E03   A0 34      LDY #$34
5E05   20 1C DE   JSR $DE1C
5E08   EE 48 07   INC $0748
5E0B   4C FE BB   JMP $BBFE
5E0E   A9 00      LDA #$00
5E10   8D 72 07   STA $0772
5E13   A9 02      LDA #$02
5E15   8D 70 07   STA $0770
5E18   A9 18      LDA #$18
5E1A   85 57      STA $57
5E1C   A4 02      LDY $02
5E1E   A9 00      LDA #$00
5E20   91 06      STA ($06),Y
5E22   4C 4D 8A   JMP $8A4D
5E25   F9 07 FF   SBC $FF07,Y
5E28   00         BRK
5E29   18         CLC
5E2A   22         ???
5E2B   50 68      BVC $5E95
5E2D   90 A4      BCC $5DD3
5E2F   04         ???
5E30   C0 06      CPY #$06
5E32   90 04      BCC $5E38
5E34   C0 0A      CPY #$0A
5E36   90 01      BCC $5E39
5E38   60         RTS
5E39   C9 24      CMP #$24
5E3B   F0 04      BEQ $5E41
5E3D   C9 25      CMP #$25
5E3F   D0 39      BNE $5E7A
5E41   A5 0E      LDA $0E
5E43   C9 05      CMP #$05
5E45   F0 41      BEQ $5E88
5E47   A9 01      LDA #$01
5E49   85 33      STA $33
5E4B   EE 23 07   INC $0723
5E4E   A5 0E      LDA $0E
5E50   C9 04      CMP #$04
5E52   F0 1F      BEQ $5E73
5E54   A9 33      LDA #$33
5E56   20 16 97   JSR $9716
5E59   A9 80      LDA #$80
5E5B   85 FC      STA $FC
5E5D   4A         LSR A
5E5E   8D 13 07   STA $0713
5E61   A2 04      LDX #$04
5E63   A5 CE      LDA $CE
5E65   8D 0F 07   STA $070F
5E68   DD 29 DE   CMP $DE29,X
5E6B   B0 03      BCS $5E70
5E6D   CA         DEX
5E6E   D0 F8      BNE $5E68
5E70   8E 0F 01   STX $010F
5E73   A9 04      LDA #$04
5E75   85 0E      STA $0E
5E77   4C 88 DE   JMP $DE88
5E7A   C9 26      CMP #$26
5E7C   D0 0A      BNE $5E88
5E7E   A5 CE      LDA $CE
5E80   C9 20      CMP #$20
5E82   B0 04      BCS $5E88
5E84   A9 01      LDA #$01
5E86   85 0E      STA $0E
5E88   A9 03      LDA #$03
5E8A   85 1D      STA $1D
5E8C   A9 00      LDA #$00
5E8E   85 57      STA $57
5E90   8D 05 07   STA $0705
5E93   A5 86      LDA $86
5E95   38         SEC
5E96   ED 1C 07   SBC $071C
5E99   C9 10      CMP #$10
5E9B   B0 04      BCS $5EA1
5E9D   A9 02      LDA #$02
5E9F   85 33      STA $33
5EA1   A4 33      LDY $33
5EA3   A5 06      LDA $06
5EA5   0A         ASL A
5EA6   0A         ASL A
5EA7   0A         ASL A
5EA8   0A         ASL A
5EA9   18         CLC
5EAA   79 24 DE   ADC $DE24,Y
5EAD   85 86      STA $86
5EAF   A5 06      LDA $06
5EB1   D0 09      BNE $5EBC
5EB3   AD 1B 07   LDA $071B
5EB6   18         CLC
5EB7   79 26 DE   ADC $DE26,Y
5EBA   85 6D      STA $6D
5EBC   60         RTS
5EBD   C9 5F      CMP #$5F
5EBF   F0 02      BEQ $5EC3
5EC1   C9 60      CMP #$60
5EC3   60         RTS
5EC4   20 DD DE   JSR $DEDD
5EC7   90 13      BCC $5EDC
5EC9   A9 70      LDA #$70
5ECB   8D 09 07   STA $0709
5ECE   A9 F9      LDA #$F9
5ED0   8D DB 06   STA $06DB
5ED3   A9 03      LDA #$03
5ED5   8D 86 07   STA $0786
5ED8   4A         LSR A
5ED9   8D 0E 07   STA $070E
5EDC   60         RTS
5EDD   C9 67      CMP #$67
5EDF   F0 05      BEQ $5EE6
5EE1   C9 68      CMP #$68
5EE3   18         CLC
5EE4   D0 01      BNE $5EE7
5EE6   38         SEC
5EE7   60         RTS
5EE8   A5 0B      LDA $0B
5EEA   29 04      AND #$04
5EEC   F0 5C      BEQ $5F4A
5EEE   A5 00      LDA $00
5EF0   C9 11      CMP #$11
5EF2   D0 56      BNE $5F4A
5EF4   A5 01      LDA $01
5EF6   C9 10      CMP #$10
5EF8   D0 50      BNE $5F4A
5EFA   A9 30      LDA #$30
5EFC   8D DE 06   STA $06DE
5EFF   A9 03      LDA #$03
5F01   85 0E      STA $0E
5F03   A9 10      LDA #$10
5F05   85 FF      STA $FF
5F07   A9 20      LDA #$20
5F09   8D C4 03   STA $03C4
5F0C   AD D6 06   LDA $06D6
5F0F   F0 39      BEQ $5F4A
5F11   29 03      AND #$03
5F13   0A         ASL A
5F14   0A         ASL A
5F15   AA         TAX
5F16   A5 86      LDA $86
5F18   C9 60      CMP #$60
5F1A   90 06      BCC $5F22
5F1C   E8         INX
5F1D   C9 A0      CMP #$A0
5F1F   90 01      BCC $5F22
5F21   E8         INX
5F22   BC F2 87   LDY $87F2,X
5F25   88         DEY
5F26   8C 5F 07   STY $075F
5F29   BE B4 9C   LDX $9CB4,Y
5F2C   BD BC 9C   LDA $9CBC,X
5F2F   8D 50 07   STA $0750
5F32   A9 80      LDA #$80
5F34   85 FC      STA $FC
5F36   A9 00      LDA #$00
5F38   8D 51 07   STA $0751
5F3B   8D 60 07   STA $0760
5F3E   8D 5C 07   STA $075C
5F41   8D 52 07   STA $0752
5F44   EE 5D 07   INC $075D
5F47   EE 57 07   INC $0757
5F4A   60         RTS
5F4B   A9 00      LDA #$00
5F4D   A4 57      LDY $57
5F4F   A6 00      LDX $00
5F51   CA         DEX
5F52   D0 0A      BNE $5F5E
5F54   E8         INX
5F55   C0 00      CPY #$00
5F57   30 28      BMI $5F81
5F59   A9 FF      LDA #$FF
5F5B   4C 66 DF   JMP $DF66
5F5E   A2 02      LDX #$02
5F60   C0 01      CPY #$01
5F62   10 1D      BPL $5F81
5F64   A9 01      LDA #$01
5F66   A0 10      LDY #$10
5F68   8C 85 07   STY $0785
5F6B   A0 00      LDY #$00
5F6D   84 57      STY $57
5F6F   C9 00      CMP #$00
5F71   10 01      BPL $5F74
5F73   88         DEY
5F74   84 00      STY $00
5F76   18         CLC
5F77   65 86      ADC $86
5F79   85 86      STA $86
5F7B   A5 6D      LDA $6D
5F7D   65 00      ADC $00
5F7F   85 6D      STA $6D
5F81   8A         TXA
5F82   49 FF      EOR #$FF
5F84   2D 90 04   AND $0490
5F87   8D 90 04   STA $0490
5F8A   60         RTS
5F8B   10 61      BPL $5FEE
5F8D   88         DEY
5F8E   C4 20      CPY $20
5F90   B0 DF      BCS $5F71
5F92   DD 8B DF   CMP $DF8B,X
5F95   60         RTS
5F96   24 6D      BIT $6D
5F98   8A         TXA
5F99   C6 20      DEC $20
5F9B   B0 DF      BCS $5F7C
5F9D   DD 96 DF   CMP $DF96,X
5FA0   60         RTS
5FA1   C9 C2      CMP #$C2
5FA3   F0 06      BEQ $5FAB
5FA5   C9 C3      CMP #$C3
5FA7   F0 02      BEQ $5FAB
5FA9   18         CLC
5FAA   60         RTS
5FAB   A9 01      LDA #$01
5FAD   85 FE      STA $FE
5FAF   60         RTS
5FB0   A8         TAY
5FB1   29 C0      AND #$C0
5FB3   0A         ASL A
5FB4   2A         ROL A
5FB5   2A         ROL A
5FB6   AA         TAX
5FB7   98         TYA
5FB8   60         RTS
5FB9   01 01      ORA ($01,X)
5FBB   02         ???
5FBC   02         ???
5FBD   02         ???
5FBE   05 10      ORA $10
5FC0   F0 B5      BEQ $5F77
5FC2   1E 29 20   ASL $2029,X
5FC5   D0 F1      BNE $5FB8
5FC7   20 5B E1   JSR $E15B
5FCA   90 EC      BCC $5FB8
5FCC   B4 16      LDY $16,X
5FCE   C0 12      CPY #$12
5FD0   D0 06      BNE $5FD8
5FD2   B5 CF      LDA $CF,X
5FD4   C9 25      CMP #$25
5FD6   90 E0      BCC $5FB8
5FD8   C0 0E      CPY #$0E
5FDA   D0 03      BNE $5FDF
5FDC   4C 63 E1   JMP $E163
5FDF   C0 05      CPY #$05
5FE1   D0 03      BNE $5FE6
5FE3   4C 85 E1   JMP $E185
5FE6   C0 12      CPY #$12
5FE8   F0 08      BEQ $5FF2
5FEA   C0 2E      CPY #$2E
5FEC   F0 04      BEQ $5FF2
5FEE   C0 07      CPY #$07
5FF0   B0 74      BCS $6066
5FF2   20 AE E1   JSR $E1AE
5FF5   D0 03      BNE $5FFA
5FF7   4C E2 E0   JMP $E0E2
5FFA   20 B5 E1   JSR $E1B5
5FFD   F0 F8      BEQ $5FF7
5FFF   C9 23      CMP #$23
6001   D0 64      BNE $6067
6003   A4 02      LDY $02
6005   A9 00      LDA #$00
6007   91 06      STA ($06),Y
6009   B5 16      LDA $16,X
600B   C9 15      CMP #$15
600D   B0 0C      BCS $601B
600F   C9 06      CMP #$06
6011   D0 03      BNE $6016
6013   20 8E E1   JSR $E18E
6016   A9 01      LDA #$01
6018   20 11 DA   JSR $DA11
601B   C9 09      CMP #$09
601D   90 10      BCC $602F
601F   C9 11      CMP #$11
6021   B0 0C      BCS $602F
6023   C9 0A      CMP #$0A
6025   90 04      BCC $602B
6027   C9 0D      CMP #$0D
6029   90 04      BCC $602F
602B   29 01      AND #$01
602D   95 16      STA $16,X
602F   B5 1E      LDA $1E,X
6031   29 F0      AND #$F0
6033   09 02      ORA #$02
6035   95 1E      STA $1E,X
6037   D6 CF      DEC $CF,X
6039   D6 CF      DEC $CF,X
603B   B5 16      LDA $16,X
603D   C9 07      CMP #$07
603F   F0 07      BEQ $6048
6041   A9 FD      LDA #$FD
6043   AC 4E 07   LDY $074E
6046   D0 02      BNE $604A
6048   A9 FF      LDA #$FF
604A   95 A0      STA $A0,X
604C   A0 01      LDY #$01
604E   20 43 E1   JSR $E143
6051   10 01      BPL $6054
6053   C8         INY
6054   B5 16      LDA $16,X
6056   C9 33      CMP #$33
6058   F0 06      BEQ $6060
605A   C9 08      CMP #$08
605C   F0 02      BEQ $6060
605E   94 46      STY $46,X
6060   88         DEY
6061   B9 BF DF   LDA $DFBF,Y
6064   95 58      STA $58,X
6066   60         RTS
6067   A5 04      LDA $04
6069   38         SEC
606A   E9 08      SBC #$08
606C   C9 05      CMP #$05
606E   B0 72      BCS $60E2
6070   B5 1E      LDA $1E,X
6072   29 40      AND #$40
6074   D0 57      BNE $60CD
6076   B5 1E      LDA $1E,X
6078   0A         ASL A
6079   90 03      BCC $607E
607B   4C FE E0   JMP $E0FE
607E   B5 1E      LDA $1E,X
6080   F0 F9      BEQ $607B
6082   C9 05      CMP #$05
6084   F0 1F      BEQ $60A5
6086   C9 03      CMP #$03
6088   B0 1A      BCS $60A4
608A   B5 1E      LDA $1E,X
608C   C9 02      CMP #$02
608E   D0 15      BNE $60A5
6090   A9 10      LDA #$10
6092   B4 16      LDY $16,X
6094   C0 12      CPY #$12
6096   D0 02      BNE $609A
6098   A9 00      LDA #$00
609A   9D 96 07   STA $0796,X
609D   A9 03      LDA #$03
609F   95 1E      STA $1E,X
60A1   20 4F E1   JSR $E14F
60A4   60         RTS
60A5   B5 16      LDA $16,X
60A7   C9 06      CMP #$06
60A9   F0 22      BEQ $60CD
60AB   C9 12      CMP #$12
60AD   D0 0E      BNE $60BD
60AF   A9 01      LDA #$01
60B1   95 46      STA $46,X
60B3   A9 08      LDA #$08
60B5   95 58      STA $58,X
60B7   A5 09      LDA $09
60B9   29 07      AND #$07
60BB   F0 10      BEQ $60CD
60BD   A0 01      LDY #$01
60BF   20 43 E1   JSR $E143
60C2   10 01      BPL $60C5
60C4   C8         INY
60C5   98         TYA
60C6   D5 46      CMP $46,X
60C8   D0 03      BNE $60CD
60CA   20 24 E1   JSR $E124
60CD   20 4F E1   JSR $E14F
60D0   B5 1E      LDA $1E,X
60D2   29 80      AND #$80
60D4   D0 05      BNE $60DB
60D6   A9 00      LDA #$00
60D8   95 1E      STA $1E,X
60DA   60         RTS
60DB   B5 1E      LDA $1E,X
60DD   29 BF      AND #$BF
60DF   95 1E      STA $1E,X
60E1   60         RTS
60E2   B5 16      LDA $16,X
60E4   C9 03      CMP #$03
60E6   D0 04      BNE $60EC
60E8   B5 1E      LDA $1E,X
60EA   F0 38      BEQ $6124
60EC   B5 1E      LDA $1E,X
60EE   A8         TAY
60EF   0A         ASL A
60F0   90 07      BCC $60F9
60F2   B5 1E      LDA $1E,X
60F4   09 40      ORA #$40
60F6   4C FC E0   JMP $E0FC
60F9   B9 B9 DF   LDA $DFB9,Y
60FC   95 1E      STA $1E,X
60FE   B5 CF      LDA $CF,X
6100   C9 20      CMP #$20
6102   90 1F      BCC $6123
6104   A0 16      LDY #$16
6106   A9 02      LDA #$02
6108   85 EB      STA $EB
610A   A5 EB      LDA $EB
610C   D5 46      CMP $46,X
610E   D0 0C      BNE $611C
6110   A9 01      LDA #$01
6112   20 88 E3   JSR $E388
6115   F0 05      BEQ $611C
6117   20 B5 E1   JSR $E1B5
611A   D0 08      BNE $6124
611C   C6 EB      DEC $EB
611E   C8         INY
611F   C0 18      CPY #$18
6121   90 E7      BCC $610A
6123   60         RTS
6124   E0 05      CPX #$05
6126   F0 09      BEQ $6131
6128   B5 1E      LDA $1E,X
612A   0A         ASL A
612B   90 04      BCC $6131
612D   A9 02      LDA #$02
612F   85 FF      STA $FF
6131   B5 16      LDA $16,X
6133   C9 05      CMP #$05
6135   D0 09      BNE $6140
6137   A9 00      LDA #$00
6139   85 00      STA $00
613B   A0 FA      LDY #$FA
613D   4C 37 CA   JMP $CA37
6140   4C 36 DB   JMP $DB36
6143   B5 87      LDA $87,X
6145   38         SEC
6146   E5 86      SBC $86
6148   85 00      STA $00
614A   B5 6E      LDA $6E,X
614C   E5 6D      SBC $6D
614E   60         RTS
614F   20 63 C3   JSR $C363
6152   B5 CF      LDA $CF,X
6154   29 F0      AND #$F0
6156   09 08      ORA #$08
6158   95 CF      STA $CF,X
615A   60         RTS
615B   B5 CF      LDA $CF,X
615D   18         CLC
615E   69 3E      ADC #$3E
6160   C9 44      CMP #$44
6162   60         RTS
6163   20 5B E1   JSR $E15B
6166   90 1A      BCC $6182
6168   B5 A0      LDA $A0,X
616A   18         CLC
616B   69 02      ADC #$02
616D   C9 03      CMP #$03
616F   90 11      BCC $6182
6171   20 AE E1   JSR $E1AE
6174   F0 0C      BEQ $6182
6176   20 B5 E1   JSR $E1B5
6179   F0 07      BEQ $6182
617B   20 4F E1   JSR $E14F
617E   A9 FD      LDA #$FD
6180   95 A0      STA $A0,X
6182   4C FE E0   JMP $E0FE
6185   20 AE E1   JSR $E1AE
6188   F0 1D      BEQ $61A7
618A   C9 23      CMP #$23
618C   D0 08      BNE $6196
618E   20 95 D7   JSR $D795
6191   A9 FC      LDA #$FC
6193   95 A0      STA $A0,X
6195   60         RTS
6196   BD 8A 07   LDA $078A,X
6199   D0 0C      BNE $61A7
619B   B5 1E      LDA $1E,X
619D   29 88      AND #$88
619F   95 1E      STA $1E,X
61A1   20 4F E1   JSR $E14F
61A4   4C FE E0   JMP $E0FE
61A7   B5 1E      LDA $1E,X
61A9   09 01      ORA #$01
61AB   95 1E      STA $1E,X
61AD   60         RTS
61AE   A9 00      LDA #$00
61B0   A0 15      LDY #$15
61B2   4C 88 E3   JMP $E388
61B5   C9 26      CMP #$26
61B7   F0 0E      BEQ $61C7
61B9   C9 C2      CMP #$C2
61BB   F0 0A      BEQ $61C7
61BD   C9 C3      CMP #$C3
61BF   F0 06      BEQ $61C7
61C1   C9 5F      CMP #$5F
61C3   F0 02      BEQ $61C7
61C5   C9 60      CMP #$60
61C7   60         RTS
61C8   B5 D5      LDA $D5,X
61CA   C9 18      CMP #$18
61CC   90 21      BCC $61EF
61CE   20 9C E3   JSR $E39C
61D1   F0 1C      BEQ $61EF
61D3   20 B5 E1   JSR $E1B5
61D6   F0 17      BEQ $61EF
61D8   B5 A6      LDA $A6,X
61DA   30 18      BMI $61F4
61DC   B5 3A      LDA $3A,X
61DE   D0 14      BNE $61F4
61E0   A9 FD      LDA #$FD
61E2   95 A6      STA $A6,X
61E4   A9 01      LDA #$01
61E6   95 3A      STA $3A,X
61E8   B5 D5      LDA $D5,X
61EA   29 F8      AND #$F8
61EC   95 D5      STA $D5,X
61EE   60         RTS
61EF   A9 00      LDA #$00
61F1   95 3A      STA $3A,X
61F3   60         RTS
61F4   A9 80      LDA #$80
61F6   95 24      STA $24,X
61F8   A9 02      LDA #$02
61FA   85 FF      STA $FF
61FC   60         RTS
61FD   02         ???
61FE   08         PHP
61FF   0E 20 03   ASL $0320
6202   14         ???
6203   0D 20 02   ORA $0220
6206   14         ???
6207   0E 20 02   ASL $0220
620A   09 0E      ORA #$0E
620C   15 00      ORA $00,X
620E   00         BRK
620F   18         CLC
6210   06 00      ASL $00
6212   00         BRK
6213   20 0D 00   JSR $000D
6216   00         BRK
6217   30 0D      BMI $6226
6219   00         BRK
621A   00         BRK
621B   08         PHP
621C   08         PHP
621D   06 04      ASL $04
621F   0A         ASL A
6220   08         PHP
6221   03         ???
6222   0E 0D 14   ASL $140D
6225   00         BRK
6226   02         ???
6227   10 15      BPL $623E
6229   04         ???
622A   04         ???
622B   0C         ???
622C   1C         ???
622D   8A         TXA
622E   18         CLC
622F   69 07      ADC #$07
6231   AA         TAX
6232   A0 02      LDY #$02
6234   D0 07      BNE $623D
6236   8A         TXA
6237   18         CLC
6238   69 09      ADC #$09
623A   AA         TAX
623B   A0 06      LDY #$06
623D   20 9C E2   JSR $E29C
6240   4C DE E2   JMP $E2DE
6243   A0 48      LDY #$48
6245   84 00      STY $00
6247   A0 44      LDY #$44
6249   4C 52 E2   JMP $E252
624C   A0 08      LDY #$08
624E   84 00      STY $00
6250   A0 04      LDY #$04
6252   B5 87      LDA $87,X
6254   38         SEC
6255   ED 1C 07   SBC $071C
6258   85 01      STA $01
625A   B5 6E      LDA $6E,X
625C   ED 1A 07   SBC $071A
625F   30 06      BMI $6267
6261   05 01      ORA $01
6263   F0 02      BEQ $6267
6265   A4 00      LDY $00
6267   98         TYA
6268   2D D1 03   AND $03D1
626B   9D D8 03   STA $03D8,X
626E   D0 19      BNE $6289
6270   4C 7C E2   JMP $E27C
6273   E8         INX
6274   20 F6 F1   JSR $F1F6
6277   CA         DEX
6278   C9 FE      CMP #$FE
627A   B0 0D      BCS $6289
627C   8A         TXA
627D   18         CLC
627E   69 01      ADC #$01
6280   AA         TAX
6281   A0 01      LDY #$01
6283   20 9C E2   JSR $E29C
6286   4C DE E2   JMP $E2DE
6289   8A         TXA
628A   0A         ASL A
628B   0A         ASL A
628C   A8         TAY
628D   A9 FF      LDA #$FF
628F   99 B0 04   STA $04B0,Y
6292   99 B1 04   STA $04B1,Y
6295   99 B2 04   STA $04B2,Y
6298   99 B3 04   STA $04B3,Y
629B   60         RTS
629C   86 00      STX $00
629E   B9 B8 03   LDA $03B8,Y
62A1   85 02      STA $02
62A3   B9 AD 03   LDA $03AD,Y
62A6   85 01      STA $01
62A8   8A         TXA
62A9   0A         ASL A
62AA   0A         ASL A
62AB   48         PHA
62AC   A8         TAY
62AD   BD 99 04   LDA $0499,X
62B0   0A         ASL A
62B1   0A         ASL A
62B2   AA         TAX
62B3   A5 01      LDA $01
62B5   18         CLC
62B6   7D FD E1   ADC $E1FD,X
62B9   99 AC 04   STA $04AC,Y
62BC   A5 01      LDA $01
62BE   18         CLC
62BF   7D FF E1   ADC $E1FF,X
62C2   99 AE 04   STA $04AE,Y
62C5   E8         INX
62C6   C8         INY
62C7   A5 02      LDA $02
62C9   18         CLC
62CA   7D FD E1   ADC $E1FD,X
62CD   99 AC 04   STA $04AC,Y
62D0   A5 02      LDA $02
62D2   18         CLC
62D3   7D FF E1   ADC $E1FF,X
62D6   99 AE 04   STA $04AE,Y
62D9   68         PLA
62DA   A8         TAY
62DB   A6 00      LDX $00
62DD   60         RTS
62DE   AD 1C 07   LDA $071C
62E1   18         CLC
62E2   69 80      ADC #$80
62E4   85 02      STA $02
62E6   AD 1A 07   LDA $071A
62E9   69 00      ADC #$00
62EB   85 01      STA $01
62ED   B5 86      LDA $86,X
62EF   C5 02      CMP $02
62F1   B5 6D      LDA $6D,X
62F3   E5 01      SBC $01
62F5   90 15      BCC $630C
62F7   B9 AE 04   LDA $04AE,Y
62FA   30 0D      BMI $6309
62FC   A9 FF      LDA #$FF
62FE   BE AC 04   LDX $04AC,Y
6301   30 03      BMI $6306
6303   99 AC 04   STA $04AC,Y
6306   99 AE 04   STA $04AE,Y
6309   A6 08      LDX $08
630B   60         RTS
630C   B9 AC 04   LDA $04AC,Y
630F   10 11      BPL $6322
6311   C9 A0      CMP #$A0
6313   90 0D      BCC $6322
6315   A9 00      LDA #$00
6317   BE AE 04   LDX $04AE,Y
631A   10 03      BPL $631F
631C   99 AE 04   STA $04AE,Y
631F   99 AC 04   STA $04AC,Y
6322   A6 08      LDX $08
6324   60         RTS
6325   A2 00      LDX #$00
6327   84 06      STY $06
6329   A9 01      LDA #$01
632B   85 07      STA $07
632D   B9 AC 04   LDA $04AC,Y
6330   DD AC 04   CMP $04AC,X
6333   B0 2A      BCS $635F
6335   DD AE 04   CMP $04AE,X
6338   90 12      BCC $634C
633A   F0 42      BEQ $637E
633C   B9 AE 04   LDA $04AE,Y
633F   D9 AC 04   CMP $04AC,Y
6342   90 3A      BCC $637E
6344   DD AC 04   CMP $04AC,X
6347   B0 35      BCS $637E
6349   A4 06      LDY $06
634B   60         RTS
634C   BD AE 04   LDA $04AE,X
634F   DD AC 04   CMP $04AC,X
6352   90 2A      BCC $637E
6354   B9 AE 04   LDA $04AE,Y
6357   DD AC 04   CMP $04AC,X
635A   B0 22      BCS $637E
635C   A4 06      LDY $06
635E   60         RTS
635F   DD AC 04   CMP $04AC,X
6362   F0 1A      BEQ $637E
6364   DD AE 04   CMP $04AE,X
6367   90 15      BCC $637E
6369   F0 13      BEQ $637E
636B   D9 AE 04   CMP $04AE,Y
636E   90 0A      BCC $637A
6370   F0 08      BEQ $637A
6372   B9 AE 04   LDA $04AE,Y
6375   DD AC 04   CMP $04AC,X
6378   B0 04      BCS $637E
637A   18         CLC
637B   A4 06      LDY $06
637D   60         RTS
637E   E8         INX
637F   C8         INY
6380   C6 07      DEC $07
6382   10 A9      BPL $632D
6384   38         SEC
6385   A4 06      LDY $06
6387   60         RTS
6388   48         PHA
6389   8A         TXA
638A   18         CLC
638B   69 01      ADC #$01
638D   AA         TAX
638E   68         PLA
638F   4C A5 E3   JMP $E3A5
6392   8A         TXA
6393   18         CLC
6394   69 0D      ADC #$0D
6396   AA         TAX
6397   A0 1B      LDY #$1B
6399   4C A3 E3   JMP $E3A3
639C   A0 1A      LDY #$1A
639E   8A         TXA
639F   18         CLC
63A0   69 07      ADC #$07
63A2   AA         TAX
63A3   A9 00      LDA #$00
63A5   20 F0 E3   JSR $E3F0
63A8   A6 08      LDX $08
63AA   C9 00      CMP #$00
63AC   60         RTS
63AD   00         BRK
63AE   07         ???
63AF   0E 08 03   ASL $0308
63B2   0C         ???
63B3   02         ???
63B4   02         ???
63B5   0D 0D 08   ORA $080D
63B8   03         ???
63B9   0C         ???
63BA   02         ???
63BB   02         ???
63BC   0D 0D 08   ORA $080D
63BF   03         ???
63C0   0C         ???
63C1   02         ???
63C2   02         ???
63C3   0D 0D 08   ORA $080D
63C6   00         BRK
63C7   10 04      BPL $63CD
63C9   14         ???
63CA   04         ???
63CB   04         ???
63CC   04         ???
63CD   20 20 08   JSR $0820
63D0   18         CLC
63D1   08         PHP
63D2   18         CLC
63D3   02         ???
63D4   20 20 08   JSR $0820
63D7   18         CLC
63D8   08         PHP
63D9   18         CLC
63DA   12         ???
63DB   20 20 18   JSR $1820
63DE   18         CLC
63DF   18         CLC
63E0   18         CLC
63E1   18         CLC
63E2   14         ???
63E3   14         ???
63E4   06 06      ASL $06
63E6   08         PHP
63E7   10 C8      BPL $63B1
63E9   A9 00      LDA #$00
63EB   2C A9 01   BIT $01A9
63EE   A2 00      LDX #$00
63F0   48         PHA
63F1   84 04      STY $04
63F3   B9 B0 E3   LDA $E3B0,Y
63F6   18         CLC
63F7   75 86      ADC $86,X
63F9   85 05      STA $05
63FB   B5 6D      LDA $6D,X
63FD   69 00      ADC #$00
63FF   29 01      AND #$01
6401   4A         LSR A
6402   05 05      ORA $05
6404   6A         ROR A
6405   4A         LSR A
6406   4A         LSR A
6407   4A         LSR A
6408   20 E1 9B   JSR $9BE1
640B   A4 04      LDY $04
640D   B5 CE      LDA $CE,X
640F   18         CLC
6410   79 CC E3   ADC $E3CC,Y
6413   29 F0      AND #$F0
6415   38         SEC
6416   E9 20      SBC #$20
6418   85 02      STA $02
641A   A8         TAY
641B   B1 06      LDA ($06),Y
641D   85 03      STA $03
641F   A4 04      LDY $04
6421   68         PLA
6422   D0 05      BNE $6429
6424   B5 CE      LDA $CE,X
6426   4C 2B E4   JMP $E42B
6429   B5 86      LDA $86,X
642B   29 0F      AND #$0F
642D   85 04      STA $04
642F   A5 03      LDA $03
6431   60         RTS
6432   FF         ???
6433   00         BRK
6434   30 84      BMI $63BA
6436   00         BRK
6437   AD B9 03   LDA $03B9
643A   18         CLC
643B   79 33 E4   ADC $E433,Y
643E   BE 9A 03   LDX $039A,Y
6441   BC E5 06   LDY $06E5,X
6444   84 02      STY $02
6446   20 AE E4   JSR $E4AE
6449   AD AE 03   LDA $03AE
644C   99 03 02   STA $0203,Y
644F   99 0B 02   STA $020B,Y
6452   99 13 02   STA $0213,Y
6455   18         CLC
6456   69 06      ADC #$06
6458   99 07 02   STA $0207,Y
645B   99 0F 02   STA $020F,Y
645E   99 17 02   STA $0217,Y
6461   A9 21      LDA #$21
6463   99 02 02   STA $0202,Y
6466   99 0A 02   STA $020A,Y
6469   99 12 02   STA $0212,Y
646C   09 40      ORA #$40
646E   99 06 02   STA $0206,Y
6471   99 0E 02   STA $020E,Y
6474   99 16 02   STA $0216,Y
6477   A2 05      LDX #$05
6479   A9 E1      LDA #$E1
647B   99 01 02   STA $0201,Y
647E   C8         INY
647F   C8         INY
6480   C8         INY
6481   C8         INY
6482   CA         DEX
6483   10 F4      BPL $6479
6485   A4 02      LDY $02
6487   A5 00      LDA $00
6489   D0 05      BNE $6490
648B   A9 E0      LDA #$E0
648D   99 01 02   STA $0201,Y
6490   A2 00      LDX #$00
6492   AD 9D 03   LDA $039D
6495   38         SEC
6496   F9 00 02   SBC $0200,Y
6499   C9 64      CMP #$64
649B   90 05      BCC $64A2
649D   A9 F8      LDA #$F8
649F   99 00 02   STA $0200,Y
64A2   C8         INY
64A3   C8         INY
64A4   C8         INY
64A5   C8         INY
64A6   E8         INX
64A7   E0 06      CPX #$06
64A9   D0 E7      BNE $6492
64AB   A4 00      LDY $00
64AD   60         RTS
64AE   A2 06      LDX #$06
64B0   99 00 02   STA $0200,Y
64B3   18         CLC
64B4   69 08      ADC #$08
64B6   C8         INY
64B7   C8         INY
64B8   C8         INY
64B9   C8         INY
64BA   CA         DEX
64BB   D0 F3      BNE $64B0
64BD   A4 02      LDY $02
64BF   60         RTS
64C0   04         ???
64C1   00         BRK
64C2   04         ???
64C3   00         BRK
64C4   00         BRK
64C5   04         ???
64C6   00         BRK
64C7   04         ???
64C8   00         BRK
64C9   08         PHP
64CA   00         BRK
64CB   08         PHP
64CC   08         PHP
64CD   00         BRK
64CE   08         PHP
64CF   00         BRK
64D0   80         ???
64D1   82         ???
64D2   81 83      STA ($83,X)
64D4   81 83      STA ($83,X)
64D6   80         ???
64D7   82         ???
64D8   03         ???
64D9   03         ???
64DA   C3         ???
64DB   C3         ???
64DC   BC F3 06   LDY $06F3,X
64DF   AD 47 07   LDA $0747
64E2   D0 08      BNE $64EC
64E4   B5 2A      LDA $2A,X
64E6   29 7F      AND #$7F
64E8   C9 01      CMP #$01
64EA   F0 04      BEQ $64F0
64EC   A2 00      LDX #$00
64EE   F0 07      BEQ $64F7
64F0   A5 09      LDA $09
64F2   4A         LSR A
64F3   4A         LSR A
64F4   29 03      AND #$03
64F6   AA         TAX
64F7   AD BE 03   LDA $03BE
64FA   18         CLC
64FB   7D C4 E4   ADC $E4C4,X
64FE   99 00 02   STA $0200,Y
6501   18         CLC
6502   7D CC E4   ADC $E4CC,X
6505   99 04 02   STA $0204,Y
6508   AD B3 03   LDA $03B3
650B   18         CLC
650C   7D C0 E4   ADC $E4C0,X
650F   99 03 02   STA $0203,Y
6512   18         CLC
6513   7D C8 E4   ADC $E4C8,X
6516   99 07 02   STA $0207,Y
6519   BD D0 E4   LDA $E4D0,X
651C   99 01 02   STA $0201,Y
651F   BD D4 E4   LDA $E4D4,X
6522   99 05 02   STA $0205,Y
6525   BD D8 E4   LDA $E4D8,X
6528   99 02 02   STA $0202,Y
652B   99 06 02   STA $0206,Y
652E   A6 08      LDX $08
6530   AD D6 03   LDA $03D6
6533   29 FC      AND #$FC
6535   F0 09      BEQ $6540
6537   A9 00      LDA #$00
6539   95 2A      STA $2A,X
653B   A9 F8      LDA #$F8
653D   20 C1 E5   JSR $E5C1
6540   60         RTS
6541   F9 50 F7   SBC $F750,Y
6544   50 FA      BVC $6540
6546   FB         ???
6547   F8         SED
6548   FB         ???
6549   F6 FB      INC $FB,X
654B   BC E5 06   LDY $06E5,X
654E   AD AE 03   LDA $03AE
6551   99 03 02   STA $0203,Y
6554   18         CLC
6555   69 08      ADC #$08
6557   99 07 02   STA $0207,Y
655A   99 0B 02   STA $020B,Y
655D   18         CLC
655E   69 0C      ADC #$0C
6560   85 05      STA $05
6562   B5 CF      LDA $CF,X
6564   20 C1 E5   JSR $E5C1
6567   69 08      ADC #$08
6569   99 08 02   STA $0208,Y
656C   AD 0D 01   LDA $010D
656F   85 02      STA $02
6571   A9 01      LDA #$01
6573   85 03      STA $03
6575   85 04      STA $04
6577   99 02 02   STA $0202,Y
657A   99 06 02   STA $0206,Y
657D   99 0A 02   STA $020A,Y
6580   A9 7E      LDA #$7E
6582   99 01 02   STA $0201,Y
6585   99 09 02   STA $0209,Y
6588   A9 7F      LDA #$7F
658A   99 05 02   STA $0205,Y
658D   AD 0F 07   LDA $070F
6590   F0 15      BEQ $65A7
6592   98         TYA
6593   18         CLC
6594   69 0C      ADC #$0C
6596   A8         TAY
6597   AD 0F 01   LDA $010F
659A   0A         ASL A
659B   AA         TAX
659C   BD 41 E5   LDA $E541,X
659F   85 00      STA $00
65A1   BD 42 E5   LDA $E542,X
65A4   20 B2 EB   JSR $EBB2
65A7   A6 08      LDX $08
65A9   BC E5 06   LDY $06E5,X
65AC   AD D1 03   LDA $03D1
65AF   29 0E      AND #$0E
65B1   F0 14      BEQ $65C7
65B3   A9 F8      LDA #$F8
65B5   99 14 02   STA $0214,Y
65B8   99 10 02   STA $0210,Y
65BB   99 0C 02   STA $020C,Y
65BE   99 08 02   STA $0208,Y
65C1   99 04 02   STA $0204,Y
65C4   99 00 02   STA $0200,Y
65C7   60         RTS
65C8   BC E5 06   LDY $06E5,X
65CB   84 02      STY $02
65CD   C8         INY
65CE   C8         INY
65CF   C8         INY
65D0   AD AE 03   LDA $03AE
65D3   20 AE E4   JSR $E4AE
65D6   A6 08      LDX $08
65D8   B5 CF      LDA $CF,X
65DA   20 BB E5   JSR $E5BB
65DD   AC 4E 07   LDY $074E
65E0   C0 03      CPY #$03
65E2   F0 05      BEQ $65E9
65E4   AC CC 06   LDY $06CC
65E7   F0 02      BEQ $65EB
65E9   A9 F8      LDA #$F8
65EB   BC E5 06   LDY $06E5,X
65EE   99 10 02   STA $0210,Y
65F1   99 14 02   STA $0214,Y
65F4   A9 5B      LDA #$5B
65F6   AE 43 07   LDX $0743
65F9   F0 02      BEQ $65FD
65FB   A9 75      LDA #$75
65FD   A6 08      LDX $08
65FF   C8         INY
6600   20 B5 E5   JSR $E5B5
6603   A9 02      LDA #$02
6605   C8         INY
6606   20 B5 E5   JSR $E5B5
6609   E8         INX
660A   20 F6 F1   JSR $F1F6
660D   CA         DEX
660E   BC E5 06   LDY $06E5,X
6611   0A         ASL A
6612   48         PHA
6613   90 05      BCC $661A
6615   A9 F8      LDA #$F8
6617   99 00 02   STA $0200,Y
661A   68         PLA
661B   0A         ASL A
661C   48         PHA
661D   90 05      BCC $6624
661F   A9 F8      LDA #$F8
6621   99 04 02   STA $0204,Y
6624   68         PLA
6625   0A         ASL A
6626   48         PHA
6627   90 05      BCC $662E
6629   A9 F8      LDA #$F8
662B   99 08 02   STA $0208,Y
662E   68         PLA
662F   0A         ASL A
6630   48         PHA
6631   90 05      BCC $6638
6633   A9 F8      LDA #$F8
6635   99 0C 02   STA $020C,Y
6638   68         PLA
6639   0A         ASL A
663A   48         PHA
663B   90 05      BCC $6642
663D   A9 F8      LDA #$F8
663F   99 10 02   STA $0210,Y
6642   68         PLA
6643   0A         ASL A
6644   90 05      BCC $664B
6646   A9 F8      LDA #$F8
6648   99 14 02   STA $0214,Y
664B   AD D1 03   LDA $03D1
664E   0A         ASL A
664F   90 03      BCC $6654
6651   20 B3 E5   JSR $E5B3
6654   60         RTS
6655   A5 09      LDA $09
6657   4A         LSR A
6658   B0 02      BCS $665C
665A   D6 DB      DEC $DB,X
665C   B5 DB      LDA $DB,X
665E   20 C1 E5   JSR $E5C1
6661   AD B3 03   LDA $03B3
6664   99 03 02   STA $0203,Y
6667   18         CLC
6668   69 08      ADC #$08
666A   99 07 02   STA $0207,Y
666D   A9 02      LDA #$02
666F   99 02 02   STA $0202,Y
6672   99 06 02   STA $0206,Y
6675   A9 F7      LDA #$F7
6677   99 01 02   STA $0201,Y
667A   A9 FB      LDA #$FB
667C   99 05 02   STA $0205,Y
667F   4C BD E6   JMP $E6BD
6682   60         RTS
6683   61 62      ADC ($62,X)
6685   63         ???
6686   BC F3 06   LDY $06F3,X
6689   B5 2A      LDA $2A,X
668B   C9 02      CMP #$02
668D   B0 C6      BCS $6655
668F   B5 DB      LDA $DB,X
6691   99 00 02   STA $0200,Y
6694   18         CLC
6695   69 08      ADC #$08
6697   99 04 02   STA $0204,Y
669A   AD B3 03   LDA $03B3
669D   99 03 02   STA $0203,Y
66A0   99 07 02   STA $0207,Y
66A3   A5 09      LDA $09
66A5   4A         LSR A
66A6   29 03      AND #$03
66A8   AA         TAX
66A9   BD 82 E6   LDA $E682,X
66AC   C8         INY
66AD   20 C1 E5   JSR $E5C1
66B0   88         DEY
66B1   A9 02      LDA #$02
66B3   99 02 02   STA $0202,Y
66B6   A9 82      LDA #$82
66B8   99 06 02   STA $0206,Y
66BB   A6 08      LDX $08
66BD   60         RTS
66BE   76 77      ROR $77,X
66C0   78         SEI
66C1   79 D6 D6   ADC $D6D6,Y
66C4   D9 D9 8D   CMP $8DD9,Y
66C7   8D E4 E4   STA $E4E4
66CA   76 77      ROR $77,X
66CC   78         SEI
66CD   79 02 01   ADC $0102,Y
66D0   02         ???
66D1   01 AC      ORA ($AC,X)
66D3   EA         NOP
66D4   06 AD      ASL $AD
66D6   B9 03 18   LDA $1803,Y
66D9   69 08      ADC #$08
66DB   85 02      STA $02
66DD   AD AE 03   LDA $03AE
66E0   85 05      STA $05
66E2   A6 39      LDX $39
66E4   BD CE E6   LDA $E6CE,X
66E7   0D CA 03   ORA $03CA
66EA   85 04      STA $04
66EC   8A         TXA
66ED   48         PHA
66EE   0A         ASL A
66EF   0A         ASL A
66F0   AA         TAX
66F1   A9 01      LDA #$01
66F3   85 07      STA $07
66F5   85 03      STA $03
66F7   BD BE E6   LDA $E6BE,X
66FA   85 00      STA $00
66FC   BD BF E6   LDA $E6BF,X
66FF   20 B2 EB   JSR $EBB2
6702   C6 07      DEC $07
6704   10 F1      BPL $66F7
6706   AC EA 06   LDY $06EA
6709   68         PLA
670A   F0 2F      BEQ $673B
670C   C9 03      CMP #$03
670E   F0 2B      BEQ $673B
6710   85 00      STA $00
6712   A5 09      LDA $09
6714   4A         LSR A
6715   29 03      AND #$03
6717   0D CA 03   ORA $03CA
671A   99 02 02   STA $0202,Y
671D   99 06 02   STA $0206,Y
6720   A6 00      LDX $00
6722   CA         DEX
6723   F0 06      BEQ $672B
6725   99 0A 02   STA $020A,Y
6728   99 0E 02   STA $020E,Y
672B   B9 06 02   LDA $0206,Y
672E   09 40      ORA #$40
6730   99 06 02   STA $0206,Y
6733   B9 0E 02   LDA $020E,Y
6736   09 40      ORA #$40
6738   99 0E 02   STA $020E,Y
673B   4C 64 EB   JMP $EB64
673E   FC         ???
673F   FC         ???
6740   AA         TAX
6741   AB         ???
6742   AC AD FC   LDY $FCAD
6745   FC         ???
6746   AE AF B0   LDX $B0AF
6749   B1 FC      LDA ($FC),Y
674B   A5 A6      LDA $A6
674D   A7         ???
674E   A8         TAY
674F   A9 FC      LDA #$FC
6751   A0 A1      LDY #$A1
6753   A2 A3      LDX #$A3
6755   A4 69      LDY $69
6757   A5 6A      LDA $6A
6759   A7         ???
675A   A8         TAY
675B   A9 6B      LDA #$6B
675D   A0 6C      LDY #$6C
675F   A2 A3      LDX #$A3
6761   A4 FC      LDY $FC
6763   FC         ???
6764   96 97      STX $97,Y
6766   98         TYA
6767   99 FC FC   STA $FCFC,Y
676A   9A         TXS
676B   9B         ???
676C   9C         ???
676D   9D FC FC   STA $FCFC,X
6770   8F         ???
6771   8E 8E 8F   STX $8F8E
6774   FC         ???
6775   FC         ???
6776   95 94      STA $94,X
6778   94 95      STY $95,X
677A   FC         ???
677B   FC         ???
677C   DC         ???
677D   DC         ???
677E   DF         ???
677F   DF         ???
6780   DC         ???
6781   DC         ???
6782   DD DD DE   CMP $DEDD,X
6785   DE FC FC   DEC $FCFC,X
6788   B2         ???
6789   B3         ???
678A   B4 B5      LDY $B5,X
678C   FC         ???
678D   FC         ???
678E   B6 B3      LDX $B3,Y
6790   B7         ???
6791   B5 FC      LDA $FC,X
6793   FC         ???
6794   70 71      BVS $6807
6796   72         ???
6797   73         ???
6798   FC         ???
6799   FC         ???
679A   6E 6E 6F   ROR $6F6E
679D   6F         ???
679E   FC         ???
679F   FC         ???
67A0   6D 6D 6F   ADC $6F6D
67A3   6F         ???
67A4   FC         ???
67A5   FC         ???
67A6   6F         ???
67A7   6F         ???
67A8   6E 6E FC   ROR $FC6E
67AB   FC         ???
67AC   6F         ???
67AD   6F         ???
67AE   6D 6D FC   ADC $FC6D
67B1   FC         ???
67B2   F4         ???
67B3   F4         ???
67B4   F5 F5      SBC $F5,X
67B6   FC         ???
67B7   FC         ???
67B8   F4         ???
67B9   F4         ???
67BA   F5 F5      SBC $F5,X
67BC   FC         ???
67BD   FC         ???
67BE   F5 F5      SBC $F5,X
67C0   F4         ???
67C1   F4         ???
67C2   FC         ???
67C3   FC         ???
67C4   F5 F5      SBC $F5,X
67C6   F4         ???
67C7   F4         ???
67C8   FC         ???
67C9   FC         ???
67CA   FC         ???
67CB   FC         ???
67CC   EF         ???
67CD   EF         ???
67CE   B9 B8 BB   LDA $BBB8,Y
67D1   BA         TSX
67D2   BC BC FC   LDY $FCBC,X
67D5   FC         ???
67D6   BD BD BC   LDA $BCBD,X
67D9   BC 7A 7B   LDY $7B7A,X
67DC   DA         ???
67DD   DB         ???
67DE   D8         CLD
67DF   D8         CLD
67E0   CD CD CE   CMP $CECD
67E3   CE CF CF   DEC $CFCF
67E6   7D 7C D1   ADC $D17C,X
67E9   8C D3 D2   STY $D2D3
67EC   7D 7C 89   ADC $897C,X
67EF   88         DEY
67F0   8B         ???
67F1   8A         TXA
67F2   D5 D4      CMP $D4,X
67F4   E3         ???
67F5   E2         ???
67F6   D3         ???
67F7   D2         ???
67F8   D5 D4      CMP $D4,X
67FA   E3         ???
67FB   E2         ???
67FC   8B         ???
67FD   8A         TXA
67FE   E5 E5      SBC $E5
6800   E6 E6      INC $E6
6802   EB         ???
6803   EB         ???
6804   EC EC ED   CPX $EDEC
6807   ED EE EE   SBC $EEEE
680A   FC         ???
680B   FC         ???
680C   D0 D0      BNE $67DE
680E   D7         ???
680F   D7         ???
6810   BF         ???
6811   BE C1 C0   LDX $C0C1,Y
6814   C2         ???
6815   FC         ???
6816   C4 C3      CPY $C3
6818   C6 C5      DEC $C5
681A   C8         INY
681B   C7         ???
681C   BF         ???
681D   BE CA C9   LDX $C9CA,Y
6820   C2         ???
6821   FC         ???
6822   C4 C3      CPY $C3
6824   C6 C5      DEC $C5
6826   CC CB FC   CPY $FCCB
6829   FC         ???
682A   E8         INX
682B   E7         ???
682C   EA         NOP
682D   E9 F2      SBC #$F2
682F   F2         ???
6830   F3         ???
6831   F3         ???
6832   F2         ???
6833   F2         ???
6834   F1 F1      SBC ($F1),Y
6836   F1 F1      SBC ($F1),Y
6838   FC         ???
6839   FC         ???
683A   F0 F0      BEQ $682C
683C   FC         ???
683D   FC         ???
683E   FC         ???
683F   FC         ???
6840   0C         ???
6841   0C         ???
6842   00         BRK
6843   0C         ???
6844   0C         ???
6845   A8         TAY
6846   54         ???
6847   3C         ???
6848   EA         NOP
6849   18         CLC
684A   48         PHA
684B   48         PHA
684C   CC C0 18   CPY $18C0
684F   18         CLC
6850   18         CLC
6851   90 24      BCC $6877
6853   FF         ???
6854   48         PHA
6855   9C         ???
6856   D2         ???
6857   D8         CLD
6858   F0 F6      BEQ $6850
685A   FC         ???
685B   01 02      ORA ($02,X)
685D   03         ???
685E   02         ???
685F   01 01      ORA ($01,X)
6861   03         ???
6862   03         ???
6863   03         ???
6864   01 01      ORA ($01,X)
6866   02         ???
6867   02         ???
6868   21 01      AND ($01,X)
686A   02         ???
686B   01 01      ORA ($01,X)
686D   02         ???
686E   FF         ???
686F   02         ???
6870   02         ???
6871   01 01      ORA ($01,X)
6873   02         ???
6874   02         ???
6875   02         ???
6876   08         PHP
6877   18         CLC
6878   18         CLC
6879   19 1A 19   ORA $191A,Y
687C   18         CLC
687D   B5 CF      LDA $CF,X
687F   85 02      STA $02
6881   AD AE 03   LDA $03AE
6884   85 05      STA $05
6886   BC E5 06   LDY $06E5,X
6889   84 EB      STY $EB
688B   A9 00      LDA #$00
688D   8D 09 01   STA $0109
6890   B5 46      LDA $46,X
6892   85 03      STA $03
6894   BD C5 03   LDA $03C5,X
6897   85 04      STA $04
6899   B5 16      LDA $16,X
689B   C9 0D      CMP #$0D
689D   D0 0A      BNE $68A9
689F   B4 58      LDY $58,X
68A1   30 06      BMI $68A9
68A3   BC 8A 07   LDY $078A,X
68A6   F0 01      BEQ $68A9
68A8   60         RTS
68A9   B5 1E      LDA $1E,X
68AB   85 ED      STA $ED
68AD   29 1F      AND #$1F
68AF   A8         TAY
68B0   B5 16      LDA $16,X
68B2   C9 35      CMP #$35
68B4   D0 08      BNE $68BE
68B6   A0 00      LDY #$00
68B8   A9 01      LDA #$01
68BA   85 03      STA $03
68BC   A9 15      LDA #$15
68BE   C9 33      CMP #$33
68C0   D0 13      BNE $68D5
68C2   C6 02      DEC $02
68C4   A9 03      LDA #$03
68C6   BC 8A 07   LDY $078A,X
68C9   F0 02      BEQ $68CD
68CB   09 20      ORA #$20
68CD   85 04      STA $04
68CF   A0 00      LDY #$00
68D1   84 ED      STY $ED
68D3   A9 08      LDA #$08
68D5   C9 32      CMP #$32
68D7   D0 08      BNE $68E1
68D9   A0 03      LDY #$03
68DB   AE 0E 07   LDX $070E
68DE   BD 78 E8   LDA $E878,X
68E1   85 EF      STA $EF
68E3   84 EC      STY $EC
68E5   A6 08      LDX $08
68E7   C9 0C      CMP #$0C
68E9   D0 07      BNE $68F2
68EB   B5 A0      LDA $A0,X
68ED   30 03      BMI $68F2
68EF   EE 09 01   INC $0109
68F2   AD 6A 03   LDA $036A
68F5   F0 09      BEQ $6900
68F7   A0 16      LDY #$16
68F9   C9 01      CMP #$01
68FB   F0 01      BEQ $68FE
68FD   C8         INY
68FE   84 EF      STY $EF
6900   A4 EF      LDY $EF
6902   C0 06      CPY #$06
6904   D0 1D      BNE $6923
6906   B5 1E      LDA $1E,X
6908   C9 02      CMP #$02
690A   90 04      BCC $6910
690C   A2 04      LDX #$04
690E   86 EC      STX $EC
6910   29 20      AND #$20
6912   0D 47 07   ORA $0747
6915   D0 0C      BNE $6923
6917   A5 09      LDA $09
6919   29 08      AND #$08
691B   D0 06      BNE $6923
691D   A5 03      LDA $03
691F   49 03      EOR #$03
6921   85 03      STA $03
6923   B9 5B E8   LDA $E85B,Y
6926   05 04      ORA $04
6928   85 04      STA $04
692A   B9 40 E8   LDA $E840,Y
692D   AA         TAX
692E   A4 EC      LDY $EC
6930   AD 6A 03   LDA $036A
6933   F0 30      BEQ $6965
6935   C9 01      CMP #$01
6937   D0 13      BNE $694C
6939   AD 63 03   LDA $0363
693C   10 02      BPL $6940
693E   A2 DE      LDX #$DE
6940   A5 ED      LDA $ED
6942   29 20      AND #$20
6944   F0 03      BEQ $6949
6946   8E 09 01   STX $0109
6949   4C 4B EA   JMP $EA4B
694C   AD 63 03   LDA $0363
694F   29 01      AND #$01
6951   F0 02      BEQ $6955
6953   A2 E4      LDX #$E4
6955   A5 ED      LDA $ED
6957   29 20      AND #$20
6959   F0 EE      BEQ $6949
695B   A5 02      LDA $02
695D   38         SEC
695E   E9 10      SBC #$10
6960   85 02      STA $02
6962   4C 46 E9   JMP $E946
6965   E0 24      CPX #$24
6967   D0 11      BNE $697A
6969   C0 05      CPY #$05
696B   D0 0A      BNE $6977
696D   A2 30      LDX #$30
696F   A9 02      LDA #$02
6971   85 03      STA $03
6973   A9 05      LDA #$05
6975   85 EC      STA $EC
6977   4C CA E9   JMP $E9CA
697A   E0 90      CPX #$90
697C   D0 12      BNE $6990
697E   A5 ED      LDA $ED
6980   29 20      AND #$20
6982   D0 09      BNE $698D
6984   AD 8F 07   LDA $078F
6987   C9 10      CMP #$10
6989   B0 02      BCS $698D
698B   A2 96      LDX #$96
698D   4C 37 EA   JMP $EA37
6990   A5 EF      LDA $EF
6992   C9 04      CMP #$04
6994   B0 10      BCS $69A6
6996   C0 02      CPY #$02
6998   90 0C      BCC $69A6
699A   A2 5A      LDX #$5A
699C   A4 EF      LDY $EF
699E   C0 02      CPY #$02
69A0   D0 04      BNE $69A6
69A2   A2 7E      LDX #$7E
69A4   E6 02      INC $02
69A6   A5 EC      LDA $EC
69A8   C9 04      CMP #$04
69AA   D0 1E      BNE $69CA
69AC   A2 72      LDX #$72
69AE   E6 02      INC $02
69B0   A4 EF      LDY $EF
69B2   C0 02      CPY #$02
69B4   F0 04      BEQ $69BA
69B6   A2 66      LDX #$66
69B8   E6 02      INC $02
69BA   C0 06      CPY #$06
69BC   D0 0C      BNE $69CA
69BE   A2 54      LDX #$54
69C0   A5 ED      LDA $ED
69C2   29 20      AND #$20
69C4   D0 04      BNE $69CA
69C6   A2 8A      LDX #$8A
69C8   C6 02      DEC $02
69CA   A4 08      LDY $08
69CC   A5 EF      LDA $EF
69CE   C9 05      CMP #$05
69D0   D0 0C      BNE $69DE
69D2   A5 ED      LDA $ED
69D4   F0 24      BEQ $69FA
69D6   29 08      AND #$08
69D8   F0 5D      BEQ $6A37
69DA   A2 B4      LDX #$B4
69DC   D0 1C      BNE $69FA
69DE   E0 48      CPX #$48
69E0   F0 18      BEQ $69FA
69E2   B9 96 07   LDA $0796,Y
69E5   C9 05      CMP #$05
69E7   B0 4E      BCS $6A37
69E9   E0 3C      CPX #$3C
69EB   D0 0D      BNE $69FA
69ED   C9 01      CMP #$01
69EF   F0 46      BEQ $6A37
69F1   E6 02      INC $02
69F3   E6 02      INC $02
69F5   E6 02      INC $02
69F7   4C 29 EA   JMP $EA29
69FA   A5 EF      LDA $EF
69FC   C9 06      CMP #$06
69FE   F0 37      BEQ $6A37
6A00   C9 08      CMP #$08
6A02   F0 33      BEQ $6A37
6A04   C9 0C      CMP #$0C
6A06   F0 2F      BEQ $6A37
6A08   C9 18      CMP #$18
6A0A   B0 2B      BCS $6A37
6A0C   A0 00      LDY #$00
6A0E   C9 15      CMP #$15
6A10   D0 10      BNE $6A22
6A12   C8         INY
6A13   AD 5F 07   LDA $075F
6A16   C9 07      CMP #$07
6A18   B0 1D      BCS $6A37
6A1A   A2 A2      LDX #$A2
6A1C   A9 03      LDA #$03
6A1E   85 EC      STA $EC
6A20   D0 15      BNE $6A37
6A22   A5 09      LDA $09
6A24   39 76 E8   AND $E876,Y
6A27   D0 0E      BNE $6A37
6A29   A5 ED      LDA $ED
6A2B   29 A0      AND #$A0
6A2D   0D 47 07   ORA $0747
6A30   D0 05      BNE $6A37
6A32   8A         TXA
6A33   18         CLC
6A34   69 06      ADC #$06
6A36   AA         TAX
6A37   A5 ED      LDA $ED
6A39   29 20      AND #$20
6A3B   F0 0E      BEQ $6A4B
6A3D   A5 EF      LDA $EF
6A3F   C9 04      CMP #$04
6A41   90 08      BCC $6A4B
6A43   A0 01      LDY #$01
6A45   8C 09 01   STY $0109
6A48   88         DEY
6A49   84 EC      STY $EC
6A4B   A4 EB      LDY $EB
6A4D   20 AA EB   JSR $EBAA
6A50   20 AA EB   JSR $EBAA
6A53   20 AA EB   JSR $EBAA
6A56   A6 08      LDX $08
6A58   BC E5 06   LDY $06E5,X
6A5B   A5 EF      LDA $EF
6A5D   C9 08      CMP #$08
6A5F   D0 03      BNE $6A64
6A61   4C 64 EB   JMP $EB64
6A64   AD 09 01   LDA $0109
6A67   F0 3D      BEQ $6AA6
6A69   B9 02 02   LDA $0202,Y
6A6C   09 80      ORA #$80
6A6E   C8         INY
6A6F   C8         INY
6A70   20 B5 E5   JSR $E5B5
6A73   88         DEY
6A74   88         DEY
6A75   98         TYA
6A76   AA         TAX
6A77   A5 EF      LDA $EF
6A79   C9 05      CMP #$05
6A7B   F0 0D      BEQ $6A8A
6A7D   C9 11      CMP #$11
6A7F   F0 09      BEQ $6A8A
6A81   C9 15      CMP #$15
6A83   B0 05      BCS $6A8A
6A85   8A         TXA
6A86   18         CLC
6A87   69 08      ADC #$08
6A89   AA         TAX
6A8A   BD 01 02   LDA $0201,X
6A8D   48         PHA
6A8E   BD 05 02   LDA $0205,X
6A91   48         PHA
6A92   B9 11 02   LDA $0211,Y
6A95   9D 01 02   STA $0201,X
6A98   B9 15 02   LDA $0215,Y
6A9B   9D 05 02   STA $0205,X
6A9E   68         PLA
6A9F   99 15 02   STA $0215,Y
6AA2   68         PLA
6AA3   99 11 02   STA $0211,Y
6AA6   AD 6A 03   LDA $036A
6AA9   D0 B6      BNE $6A61
6AAB   A5 EF      LDA $EF
6AAD   A6 EC      LDX $EC
6AAF   C9 05      CMP #$05
6AB1   D0 03      BNE $6AB6
6AB3   4C 64 EB   JMP $EB64
6AB6   C9 07      CMP #$07
6AB8   F0 1D      BEQ $6AD7
6ABA   C9 0D      CMP #$0D
6ABC   F0 19      BEQ $6AD7
6ABE   C9 0C      CMP #$0C
6AC0   F0 15      BEQ $6AD7
6AC2   C9 12      CMP #$12
6AC4   D0 04      BNE $6ACA
6AC6   E0 05      CPX #$05
6AC8   D0 48      BNE $6B12
6ACA   C9 15      CMP #$15
6ACC   D0 05      BNE $6AD3
6ACE   A9 42      LDA #$42
6AD0   99 16 02   STA $0216,Y
6AD3   E0 02      CPX #$02
6AD5   90 3B      BCC $6B12
6AD7   AD 6A 03   LDA $036A
6ADA   D0 36      BNE $6B12
6ADC   B9 02 02   LDA $0202,Y
6ADF   29 A3      AND #$A3
6AE1   99 02 02   STA $0202,Y
6AE4   99 0A 02   STA $020A,Y
6AE7   99 12 02   STA $0212,Y
6AEA   09 40      ORA #$40
6AEC   E0 05      CPX #$05
6AEE   D0 02      BNE $6AF2
6AF0   09 80      ORA #$80
6AF2   99 06 02   STA $0206,Y
6AF5   99 0E 02   STA $020E,Y
6AF8   99 16 02   STA $0216,Y
6AFB   E0 04      CPX #$04
6AFD   D0 13      BNE $6B12
6AFF   B9 0A 02   LDA $020A,Y
6B02   09 80      ORA #$80
6B04   99 0A 02   STA $020A,Y
6B07   99 12 02   STA $0212,Y
6B0A   09 40      ORA #$40
6B0C   99 0E 02   STA $020E,Y
6B0F   99 16 02   STA $0216,Y
6B12   A5 EF      LDA $EF
6B14   C9 11      CMP #$11
6B16   D0 36      BNE $6B4E
6B18   AD 09 01   LDA $0109
6B1B   D0 21      BNE $6B3E
6B1D   B9 12 02   LDA $0212,Y
6B20   29 81      AND #$81
6B22   99 12 02   STA $0212,Y
6B25   B9 16 02   LDA $0216,Y
6B28   09 41      ORA #$41
6B2A   99 16 02   STA $0216,Y
6B2D   AE 8F 07   LDX $078F
6B30   E0 10      CPX #$10
6B32   B0 30      BCS $6B64
6B34   99 0E 02   STA $020E,Y
6B37   29 81      AND #$81
6B39   99 0A 02   STA $020A,Y
6B3C   90 26      BCC $6B64
6B3E   B9 02 02   LDA $0202,Y
6B41   29 81      AND #$81
6B43   99 02 02   STA $0202,Y
6B46   B9 06 02   LDA $0206,Y
6B49   09 41      ORA #$41
6B4B   99 06 02   STA $0206,Y
6B4E   A5 EF      LDA $EF
6B50   C9 18      CMP #$18
6B52   90 10      BCC $6B64
6B54   A9 82      LDA #$82
6B56   99 0A 02   STA $020A,Y
6B59   99 12 02   STA $0212,Y
6B5C   09 40      ORA #$40
6B5E   99 0E 02   STA $020E,Y
6B61   99 16 02   STA $0216,Y
6B64   A6 08      LDX $08
6B66   AD D1 03   LDA $03D1
6B69   4A         LSR A
6B6A   4A         LSR A
6B6B   4A         LSR A
6B6C   48         PHA
6B6D   90 05      BCC $6B74
6B6F   A9 04      LDA #$04
6B71   20 C1 EB   JSR $EBC1
6B74   68         PLA
6B75   4A         LSR A
6B76   48         PHA
6B77   90 05      BCC $6B7E
6B79   A9 00      LDA #$00
6B7B   20 C1 EB   JSR $EBC1
6B7E   68         PLA
6B7F   4A         LSR A
6B80   4A         LSR A
6B81   48         PHA
6B82   90 05      BCC $6B89
6B84   A9 10      LDA #$10
6B86   20 B7 EB   JSR $EBB7
6B89   68         PLA
6B8A   4A         LSR A
6B8B   48         PHA
6B8C   90 05      BCC $6B93
6B8E   A9 08      LDA #$08
6B90   20 B7 EB   JSR $EBB7
6B93   68         PLA
6B94   4A         LSR A
6B95   90 12      BCC $6BA9
6B97   20 B7 EB   JSR $EBB7
6B9A   B5 16      LDA $16,X
6B9C   C9 0C      CMP #$0C
6B9E   F0 09      BEQ $6BA9
6BA0   B5 B6      LDA $B6,X
6BA2   C9 02      CMP #$02
6BA4   D0 03      BNE $6BA9
6BA6   20 98 C9   JSR $C998
6BA9   60         RTS
6BAA   BD 3E E7   LDA $E73E,X
6BAD   85 00      STA $00
6BAF   BD 3F E7   LDA $E73F,X
6BB2   85 01      STA $01
6BB4   4C 82 F2   JMP $F282
6BB7   18         CLC
6BB8   7D E5 06   ADC $06E5,X
6BBB   A8         TAY
6BBC   A9 F8      LDA #$F8
6BBE   4C C1 E5   JMP $E5C1
6BC1   18         CLC
6BC2   7D E5 06   ADC $06E5,X
6BC5   A8         TAY
6BC6   20 4A EC   JSR $EC4A
6BC9   99 10 02   STA $0210,Y
6BCC   60         RTS
6BCD   85 85      STA $85
6BCF   86 86      STX $86
6BD1   AD BC 03   LDA $03BC
6BD4   85 02      STA $02
6BD6   AD B1 03   LDA $03B1
6BD9   85 05      STA $05
6BDB   A9 03      LDA #$03
6BDD   85 04      STA $04
6BDF   4A         LSR A
6BE0   85 03      STA $03
6BE2   BC EC 06   LDY $06EC,X
6BE5   A2 00      LDX #$00
6BE7   BD CD EB   LDA $EBCD,X
6BEA   85 00      STA $00
6BEC   BD CE EB   LDA $EBCE,X
6BEF   20 B2 EB   JSR $EBB2
6BF2   E0 04      CPX #$04
6BF4   D0 F1      BNE $6BE7
6BF6   A6 08      LDX $08
6BF8   BC EC 06   LDY $06EC,X
6BFB   AD 4E 07   LDA $074E
6BFE   C9 01      CMP #$01
6C00   F0 08      BEQ $6C0A
6C02   A9 86      LDA #$86
6C04   99 01 02   STA $0201,Y
6C07   99 05 02   STA $0205,Y
6C0A   BD E8 03   LDA $03E8,X
6C0D   C9 C4      CMP #$C4
6C0F   D0 24      BNE $6C35
6C11   A9 87      LDA #$87
6C13   C8         INY
6C14   20 BB E5   JSR $E5BB
6C17   88         DEY
6C18   A9 03      LDA #$03
6C1A   AE 4E 07   LDX $074E
6C1D   CA         DEX
6C1E   F0 01      BEQ $6C21
6C20   4A         LSR A
6C21   A6 08      LDX $08
6C23   99 02 02   STA $0202,Y
6C26   09 40      ORA #$40
6C28   99 06 02   STA $0206,Y
6C2B   09 80      ORA #$80
6C2D   99 0E 02   STA $020E,Y
6C30   29 83      AND #$83
6C32   99 0A 02   STA $020A,Y
6C35   AD D4 03   LDA $03D4
6C38   48         PHA
6C39   29 04      AND #$04
6C3B   F0 08      BEQ $6C45
6C3D   A9 F8      LDA #$F8
6C3F   99 04 02   STA $0204,Y
6C42   99 0C 02   STA $020C,Y
6C45   68         PLA
6C46   29 08      AND #$08
6C48   F0 08      BEQ $6C52
6C4A   A9 F8      LDA #$F8
6C4C   99 00 02   STA $0200,Y
6C4F   99 08 02   STA $0208,Y
6C52   60         RTS
6C53   A9 02      LDA #$02
6C55   85 00      STA $00
6C57   A9 75      LDA #$75
6C59   A4 0E      LDY $0E
6C5B   C0 05      CPY #$05
6C5D   F0 06      BEQ $6C65
6C5F   A9 03      LDA #$03
6C61   85 00      STA $00
6C63   A9 84      LDA #$84
6C65   BC EC 06   LDY $06EC,X
6C68   C8         INY
6C69   20 BB E5   JSR $E5BB
6C6C   A5 09      LDA $09
6C6E   0A         ASL A
6C6F   0A         ASL A
6C70   0A         ASL A
6C71   0A         ASL A
6C72   29 C0      AND #$C0
6C74   05 00      ORA $00
6C76   C8         INY
6C77   20 BB E5   JSR $E5BB
6C7A   88         DEY
6C7B   88         DEY
6C7C   AD BC 03   LDA $03BC
6C7F   20 C1 E5   JSR $E5C1
6C82   AD B1 03   LDA $03B1
6C85   99 03 02   STA $0203,Y
6C88   BD F1 03   LDA $03F1,X
6C8B   38         SEC
6C8C   ED 1C 07   SBC $071C
6C8F   85 00      STA $00
6C91   38         SEC
6C92   ED B1 03   SBC $03B1
6C95   65 00      ADC $00
6C97   69 06      ADC #$06
6C99   99 07 02   STA $0207,Y
6C9C   AD BD 03   LDA $03BD
6C9F   99 08 02   STA $0208,Y
6CA2   99 0C 02   STA $020C,Y
6CA5   AD B2 03   LDA $03B2
6CA8   99 0B 02   STA $020B,Y
6CAB   A5 00      LDA $00
6CAD   38         SEC
6CAE   ED B2 03   SBC $03B2
6CB1   65 00      ADC $00
6CB3   69 06      ADC #$06
6CB5   99 0F 02   STA $020F,Y
6CB8   AD D4 03   LDA $03D4
6CBB   20 46 EC   JSR $EC46
6CBE   AD D4 03   LDA $03D4
6CC1   0A         ASL A
6CC2   90 05      BCC $6CC9
6CC4   A9 F8      LDA #$F8
6CC6   20 C1 E5   JSR $E5C1
6CC9   A5 00      LDA $00
6CCB   10 10      BPL $6CDD
6CCD   B9 03 02   LDA $0203,Y
6CD0   D9 07 02   CMP $0207,Y
6CD3   90 08      BCC $6CDD
6CD5   A9 F8      LDA #$F8
6CD7   99 04 02   STA $0204,Y
6CDA   99 0C 02   STA $020C,Y
6CDD   60         RTS
6CDE   BC F1 06   LDY $06F1,X
6CE1   AD BA 03   LDA $03BA
6CE4   99 00 02   STA $0200,Y
6CE7   AD AF 03   LDA $03AF
6CEA   99 03 02   STA $0203,Y
6CED   A5 09      LDA $09
6CEF   4A         LSR A
6CF0   4A         LSR A
6CF1   48         PHA
6CF2   29 01      AND #$01
6CF4   49 64      EOR #$64
6CF6   99 01 02   STA $0201,Y
6CF9   68         PLA
6CFA   4A         LSR A
6CFB   4A         LSR A
6CFC   A9 02      LDA #$02
6CFE   90 02      BCC $6D02
6D00   09 C0      ORA #$C0
6D02   99 02 02   STA $0202,Y
6D05   60         RTS
6D06   68         PLA
6D07   67         ???
6D08   66 BC      ROR $BC
6D0A   EC 06 B5   CPX $B506
6D0D   24 F6      BIT $F6
6D0F   24 4A      BIT $4A
6D11   29 07      AND #$07
6D13   C9 03      CMP #$03
6D15   B0 4A      BCS $6D61
6D17   AA         TAX
6D18   BD 06 ED   LDA $ED06,X
6D1B   C8         INY
6D1C   20 BB E5   JSR $E5BB
6D1F   88         DEY
6D20   A6 08      LDX $08
6D22   AD BA 03   LDA $03BA
6D25   38         SEC
6D26   E9 04      SBC #$04
6D28   99 00 02   STA $0200,Y
6D2B   99 08 02   STA $0208,Y
6D2E   18         CLC
6D2F   69 08      ADC #$08
6D31   99 04 02   STA $0204,Y
6D34   99 0C 02   STA $020C,Y
6D37   AD AF 03   LDA $03AF
6D3A   38         SEC
6D3B   E9 04      SBC #$04
6D3D   99 03 02   STA $0203,Y
6D40   99 07 02   STA $0207,Y
6D43   18         CLC
6D44   69 08      ADC #$08
6D46   99 0B 02   STA $020B,Y
6D49   99 0F 02   STA $020F,Y
6D4C   A9 02      LDA #$02
6D4E   99 02 02   STA $0202,Y
6D51   A9 82      LDA #$82
6D53   99 06 02   STA $0206,Y
6D56   A9 42      LDA #$42
6D58   99 0A 02   STA $020A,Y
6D5B   A9 C2      LDA #$C2
6D5D   99 0E 02   STA $020E,Y
6D60   60         RTS
6D61   A9 00      LDA #$00
6D63   95 24      STA $24,X
6D65   60         RTS
6D66   BC E5 06   LDY $06E5,X
6D69   A9 5B      LDA #$5B
6D6B   C8         INY
6D6C   20 B5 E5   JSR $E5B5
6D6F   C8         INY
6D70   A9 02      LDA #$02
6D72   20 B5 E5   JSR $E5B5
6D75   88         DEY
6D76   88         DEY
6D77   AD AE 03   LDA $03AE
6D7A   99 03 02   STA $0203,Y
6D7D   99 0F 02   STA $020F,Y
6D80   18         CLC
6D81   69 08      ADC #$08
6D83   99 07 02   STA $0207,Y
6D86   99 13 02   STA $0213,Y
6D89   18         CLC
6D8A   69 08      ADC #$08
6D8C   99 0B 02   STA $020B,Y
6D8F   99 17 02   STA $0217,Y
6D92   B5 CF      LDA $CF,X
6D94   AA         TAX
6D95   48         PHA
6D96   E0 20      CPX #$20
6D98   B0 02      BCS $6D9C
6D9A   A9 F8      LDA #$F8
6D9C   20 BE E5   JSR $E5BE
6D9F   68         PLA
6DA0   18         CLC
6DA1   69 80      ADC #$80
6DA3   AA         TAX
6DA4   E0 20      CPX #$20
6DA6   B0 02      BCS $6DAA
6DA8   A9 F8      LDA #$F8
6DAA   99 0C 02   STA $020C,Y
6DAD   99 10 02   STA $0210,Y
6DB0   99 14 02   STA $0214,Y
6DB3   AD D1 03   LDA $03D1
6DB6   48         PHA
6DB7   29 08      AND #$08
6DB9   F0 08      BEQ $6DC3
6DBB   A9 F8      LDA #$F8
6DBD   99 00 02   STA $0200,Y
6DC0   99 0C 02   STA $020C,Y
6DC3   68         PLA
6DC4   48         PHA
6DC5   29 04      AND #$04
6DC7   F0 08      BEQ $6DD1
6DC9   A9 F8      LDA #$F8
6DCB   99 04 02   STA $0204,Y
6DCE   99 10 02   STA $0210,Y
6DD1   68         PLA
6DD2   29 02      AND #$02
6DD4   F0 08      BEQ $6DDE
6DD6   A9 F8      LDA #$F8
6DD8   99 08 02   STA $0208,Y
6DDB   99 14 02   STA $0214,Y
6DDE   A6 08      LDX $08
6DE0   60         RTS
6DE1   A4 B5      LDY $B5
6DE3   88         DEY
6DE4   D0 20      BNE $6E06
6DE6   AD D3 03   LDA $03D3
6DE9   29 08      AND #$08
6DEB   D0 19      BNE $6E06
6DED   BC EE 06   LDY $06EE,X
6DF0   AD B0 03   LDA $03B0
6DF3   99 03 02   STA $0203,Y
6DF6   AD BB 03   LDA $03BB
6DF9   99 00 02   STA $0200,Y
6DFC   A9 74      LDA #$74
6DFE   99 01 02   STA $0201,Y
6E01   A9 02      LDA #$02
6E03   99 02 02   STA $0202,Y
6E06   60         RTS
6E07   20 28 C8   JSR $C828
6E0A   18         CLC
6E0B   00         BRK
6E0C   40         RTI
6E0D   50 58      BVC $6E67
6E0F   80         ???
6E10   88         DEY
6E11   B8         CLV
6E12   78         SEI
6E13   60         RTS
6E14   A0 B0      LDY #$B0
6E16   B8         CLV
6E17   00         BRK
6E18   01 02      ORA ($02,X)
6E1A   03         ???
6E1B   04         ???
6E1C   05 06      ORA $06
6E1E   07         ???
6E1F   08         PHP
6E20   09 0A      ORA #$0A
6E22   0B         ???
6E23   0C         ???
6E24   0D 0E 0F   ORA $0F0E
6E27   10 11      BPL $6E3A
6E29   12         ???
6E2A   13         ???
6E2B   14         ???
6E2C   15 16      ORA $16,X
6E2E   17         ???
6E2F   18         CLC
6E30   19 1A 1B   ORA $1B1A,Y
6E33   1C         ???
6E34   1D 1E 1F   ORA $1F1E,X
6E37   20 21 22   JSR $2221
6E3A   23         ???
6E3B   24 25      BIT $25
6E3D   26 27      ROL $27
6E3F   08         PHP
6E40   09 28      ORA #$28
6E42   29 2A      AND #$2A
6E44   2B         ???
6E45   2C 2D 08   BIT $082D
6E48   09 0A      ORA #$0A
6E4A   0B         ???
6E4B   0C         ???
6E4C   30 2C      BMI $6E7A
6E4E   2D 08 09   AND $0908
6E51   0A         ASL A
6E52   0B         ???
6E53   2E 2F 2C   ROL $2C2F
6E56   2D 08 09   AND $0908
6E59   28         PLP
6E5A   29 2A      AND #$2A
6E5C   2B         ???
6E5D   5C         ???
6E5E   5D 08 09   EOR $0908,X
6E61   0A         ASL A
6E62   0B         ???
6E63   0C         ???
6E64   0D 5E 5F   ORA $5F5E
6E67   FC         ???
6E68   FC         ???
6E69   08         PHP
6E6A   09 58      ORA #$58
6E6C   59 5A 5A   EOR $5A5A,Y
6E6F   08         PHP
6E70   09 28      ORA #$28
6E72   29 2A      AND #$2A
6E74   2B         ???
6E75   0E 0F FC   ASL $FC0F
6E78   FC         ???
6E79   FC         ???
6E7A   FC         ???
6E7B   32         ???
6E7C   33         ???
6E7D   34         ???
6E7E   35 FC      AND $FC,X
6E80   FC         ???
6E81   FC         ???
6E82   FC         ???
6E83   36 37      ROL $37,X
6E85   38         SEC
6E86   39 FC FC   AND $FCFC,Y
6E89   FC         ???
6E8A   FC         ???
6E8B   3A         ???
6E8C   37         ???
6E8D   3B         ???
6E8E   3C         ???
6E8F   FC         ???
6E90   FC         ???
6E91   FC         ???
6E92   FC         ???
6E93   3D 3E 3F   AND $3F3E,X
6E96   40         RTI
6E97   FC         ???
6E98   FC         ???
6E99   FC         ???
6E9A   FC         ???
6E9B   32         ???
6E9C   41 42      EOR ($42,X)
6E9E   43         ???
6E9F   FC         ???
6EA0   FC         ???
6EA1   FC         ???
6EA2   FC         ???
6EA3   32         ???
6EA4   33         ???
6EA5   44         ???
6EA6   45 FC      EOR $FC
6EA8   FC         ???
6EA9   FC         ???
6EAA   FC         ???
6EAB   32         ???
6EAC   33         ???
6EAD   44         ???
6EAE   47         ???
6EAF   FC         ???
6EB0   FC         ???
6EB1   FC         ???
6EB2   FC         ???
6EB3   32         ???
6EB4   33         ???
6EB5   48         PHA
6EB6   49 FC      EOR #$FC
6EB8   FC         ???
6EB9   FC         ???
6EBA   FC         ???
6EBB   32         ???
6EBC   33         ???
6EBD   90 91      BCC $6E50
6EBF   FC         ???
6EC0   FC         ???
6EC1   FC         ???
6EC2   FC         ???
6EC3   3A         ???
6EC4   37         ???
6EC5   92         ???
6EC6   93         ???
6EC7   FC         ???
6EC8   FC         ???
6EC9   FC         ???
6ECA   FC         ???
6ECB   9E         ???
6ECC   9E         ???
6ECD   9F         ???
6ECE   9F         ???
6ECF   FC         ???
6ED0   FC         ???
6ED1   FC         ???
6ED2   FC         ???
6ED3   3A         ???
6ED4   37         ???
6ED5   4F         ???
6ED6   4F         ???
6ED7   FC         ???
6ED8   FC         ???
6ED9   00         BRK
6EDA   01 4C      ORA ($4C,X)
6EDC   4D 4E 4E   EOR $4E4E
6EDF   00         BRK
6EE0   01 4C      ORA ($4C,X)
6EE2   4D 4A 4A   EOR $4A4A
6EE5   4B         ???
6EE6   4B         ???
6EE7   31 46      AND ($46),Y
6EE9   AD 9E 07   LDA $079E
6EEC   F0 05      BEQ $6EF3
6EEE   A5 09      LDA $09
6EF0   4A         LSR A
6EF1   B0 40      BCS $6F33
6EF3   A5 0E      LDA $0E
6EF5   C9 0B      CMP #$0B
6EF7   F0 47      BEQ $6F40
6EF9   AD 0B 07   LDA $070B
6EFC   D0 3C      BNE $6F3A
6EFE   AC 04 07   LDY $0704
6F01   F0 31      BEQ $6F34
6F03   A5 1D      LDA $1D
6F05   C9 00      CMP #$00
6F07   F0 2B      BEQ $6F34
6F09   20 34 EF   JSR $EF34
6F0C   A5 09      LDA $09
6F0E   29 04      AND #$04
6F10   D0 21      BNE $6F33
6F12   AA         TAX
6F13   AC E4 06   LDY $06E4
6F16   A5 33      LDA $33
6F18   4A         LSR A
6F19   B0 04      BCS $6F1F
6F1B   C8         INY
6F1C   C8         INY
6F1D   C8         INY
6F1E   C8         INY
6F1F   AD 54 07   LDA $0754
6F22   F0 09      BEQ $6F2D
6F24   B9 19 02   LDA $0219,Y
6F27   CD B5 EE   CMP $EEB5
6F2A   F0 07      BEQ $6F33
6F2C   E8         INX
6F2D   BD E7 EE   LDA $EEE7,X
6F30   99 19 02   STA $0219,Y
6F33   60         RTS
6F34   20 EC EF   JSR $EFEC
6F37   4C 45 EF   JMP $EF45
6F3A   20 B0 F0   JSR $F0B0
6F3D   4C 45 EF   JMP $EF45
6F40   A0 0E      LDY #$0E
6F42   B9 07 EE   LDA $EE07,Y
6F45   8D D5 06   STA $06D5
6F48   A9 04      LDA #$04
6F4A   20 BE EF   JSR $EFBE
6F4D   20 E9 F0   JSR $F0E9
6F50   AD 11 07   LDA $0711
6F53   F0 25      BEQ $6F7A
6F55   A0 00      LDY #$00
6F57   AD 81 07   LDA $0781
6F5A   CD 11 07   CMP $0711
6F5D   8C 11 07   STY $0711
6F60   B0 18      BCS $6F7A
6F62   8D 11 07   STA $0711
6F65   A0 07      LDY #$07
6F67   B9 07 EE   LDA $EE07,Y
6F6A   8D D5 06   STA $06D5
6F6D   A0 04      LDY #$04
6F6F   A5 57      LDA $57
6F71   05 0C      ORA $0C
6F73   F0 01      BEQ $6F76
6F75   88         DEY
6F76   98         TYA
6F77   20 BE EF   JSR $EFBE
6F7A   AD D0 03   LDA $03D0
6F7D   4A         LSR A
6F7E   4A         LSR A
6F7F   4A         LSR A
6F80   4A         LSR A
6F81   85 00      STA $00
6F83   A2 03      LDX #$03
6F85   AD E4 06   LDA $06E4
6F88   18         CLC
6F89   69 18      ADC #$18
6F8B   A8         TAY
6F8C   A9 F8      LDA #$F8
6F8E   46 00      LSR $00
6F90   90 03      BCC $6F95
6F92   20 C1 E5   JSR $E5C1
6F95   98         TYA
6F96   38         SEC
6F97   E9 08      SBC #$08
6F99   A8         TAY
6F9A   CA         DEX
6F9B   10 EF      BPL $6F8C
6F9D   60         RTS
6F9E   58         CLI
6F9F   01 00      ORA ($00,X)
6FA1   60         RTS
6FA2   FF         ???
6FA3   04         ???
6FA4   A2 05      LDX #$05
6FA6   BD 9E EF   LDA $EF9E,X
6FA9   95 02      STA $02,X
6FAB   CA         DEX
6FAC   10 F8      BPL $6FA6
6FAE   A2 B8      LDX #$B8
6FB0   A0 04      LDY #$04
6FB2   20 DC EF   JSR $EFDC
6FB5   AD 26 02   LDA $0226
6FB8   09 40      ORA #$40
6FBA   8D 22 02   STA $0222
6FBD   60         RTS
6FBE   85 07      STA $07
6FC0   AD AD 03   LDA $03AD
6FC3   8D 55 07   STA $0755
6FC6   85 05      STA $05
6FC8   AD B8 03   LDA $03B8
6FCB   85 02      STA $02
6FCD   A5 33      LDA $33
6FCF   85 03      STA $03
6FD1   AD C4 03   LDA $03C4
6FD4   85 04      STA $04
6FD6   AE D5 06   LDX $06D5
6FD9   AC E4 06   LDY $06E4
6FDC   BD 17 EE   LDA $EE17,X
6FDF   85 00      STA $00
6FE1   BD 18 EE   LDA $EE18,X
6FE4   20 B2 EB   JSR $EBB2
6FE7   C6 07      DEC $07
6FE9   D0 F1      BNE $6FDC
6FEB   60         RTS
6FEC   A5 1D      LDA $1D
6FEE   C9 03      CMP #$03
6FF0   F0 52      BEQ $7044
6FF2   C9 02      CMP #$02
6FF4   F0 3E      BEQ $7034
6FF6   C9 01      CMP #$01
6FF8   D0 11      BNE $700B
6FFA   AD 04 07   LDA $0704
6FFD   D0 51      BNE $7050
6FFF   A0 06      LDY #$06
7001   AD 14 07   LDA $0714
7004   D0 22      BNE $7028
7006   A0 00      LDY #$00
7008   4C 28 F0   JMP $F028
700B   A0 06      LDY #$06
700D   AD 14 07   LDA $0714
7010   D0 16      BNE $7028
7012   A0 02      LDY #$02
7014   A5 57      LDA $57
7016   05 0C      ORA $0C
7018   F0 0E      BEQ $7028
701A   AD 00 07   LDA $0700
701D   C9 09      CMP #$09
701F   90 1B      BCC $703C
7021   A5 45      LDA $45
7023   25 33      AND $33
7025   D0 15      BNE $703C
7027   C8         INY
7028   20 91 F0   JSR $F091
702B   A9 00      LDA #$00
702D   8D 0D 07   STA $070D
7030   B9 07 EE   LDA $EE07,Y
7033   60         RTS
7034   A0 04      LDY #$04
7036   20 91 F0   JSR $F091
7039   4C 62 F0   JMP $F062
703C   A0 04      LDY #$04
703E   20 91 F0   JSR $F091
7041   4C 68 F0   JMP $F068
7044   A0 05      LDY #$05
7046   A5 9F      LDA $9F
7048   F0 DE      BEQ $7028
704A   20 91 F0   JSR $F091
704D   4C 6D F0   JMP $F06D
7050   A0 01      LDY #$01
7052   20 91 F0   JSR $F091
7055   AD 82 07   LDA $0782
7058   0D 0D 07   ORA $070D
705B   D0 0B      BNE $7068
705D   A5 0A      LDA $0A
705F   0A         ASL A
7060   B0 06      BCS $7068
7062   AD 0D 07   LDA $070D
7065   4C D0 F0   JMP $F0D0
7068   A9 03      LDA #$03
706A   4C 6F F0   JMP $F06F
706D   A9 02      LDA #$02
706F   85 00      STA $00
7071   20 62 F0   JSR $F062
7074   48         PHA
7075   AD 81 07   LDA $0781
7078   D0 15      BNE $708F
707A   AD 0C 07   LDA $070C
707D   8D 81 07   STA $0781
7080   AD 0D 07   LDA $070D
7083   18         CLC
7084   69 01      ADC #$01
7086   C5 00      CMP $00
7088   90 02      BCC $708C
708A   A9 00      LDA #$00
708C   8D 0D 07   STA $070D
708F   68         PLA
7090   60         RTS
7091   AD 54 07   LDA $0754
7094   F0 05      BEQ $709B
7096   98         TYA
7097   18         CLC
7098   69 08      ADC #$08
709A   A8         TAY
709B   60         RTS
709C   00         BRK
709D   01 00      ORA ($00,X)
709F   01 00      ORA ($00,X)
70A1   01 02      ORA ($02,X)
70A3   00         BRK
70A4   01 02      ORA ($02,X)
70A6   02         ???
70A7   00         BRK
70A8   02         ???
70A9   00         BRK
70AA   02         ???
70AB   00         BRK
70AC   02         ???
70AD   00         BRK
70AE   02         ???
70AF   00         BRK
70B0   AC 0D 07   LDY $070D
70B3   A5 09      LDA $09
70B5   29 03      AND #$03
70B7   D0 0D      BNE $70C6
70B9   C8         INY
70BA   C0 0A      CPY #$0A
70BC   90 05      BCC $70C3
70BE   A0 00      LDY #$00
70C0   8C 0B 07   STY $070B
70C3   8C 0D 07   STY $070D
70C6   AD 54 07   LDA $0754
70C9   D0 0C      BNE $70D7
70CB   B9 9C F0   LDA $F09C,Y
70CE   A0 0F      LDY #$0F
70D0   0A         ASL A
70D1   0A         ASL A
70D2   0A         ASL A
70D3   79 07 EE   ADC $EE07,Y
70D6   60         RTS
70D7   98         TYA
70D8   18         CLC
70D9   69 0A      ADC #$0A
70DB   AA         TAX
70DC   A0 09      LDY #$09
70DE   BD 9C F0   LDA $F09C,X
70E1   D0 02      BNE $70E5
70E3   A0 01      LDY #$01
70E5   B9 07 EE   LDA $EE07,Y
70E8   60         RTS
70E9   AC E4 06   LDY $06E4
70EC   A5 0E      LDA $0E
70EE   C9 0B      CMP #$0B
70F0   F0 13      BEQ $7105
70F2   AD D5 06   LDA $06D5
70F5   C9 50      CMP #$50
70F7   F0 1E      BEQ $7117
70F9   C9 B8      CMP #$B8
70FB   F0 1A      BEQ $7117
70FD   C9 C0      CMP #$C0
70FF   F0 16      BEQ $7117
7101   C9 C8      CMP #$C8
7103   D0 24      BNE $7129
7105   B9 12 02   LDA $0212,Y
7108   29 3F      AND #$3F
710A   99 12 02   STA $0212,Y
710D   B9 16 02   LDA $0216,Y
7110   29 3F      AND #$3F
7112   09 40      ORA #$40
7114   99 16 02   STA $0216,Y
7117   B9 1A 02   LDA $021A,Y
711A   29 3F      AND #$3F
711C   99 1A 02   STA $021A,Y
711F   B9 1E 02   LDA $021E,Y
7122   29 3F      AND #$3F
7124   09 40      ORA #$40
7126   99 1E 02   STA $021E,Y
7129   60         RTS
712A   A2 00      LDX #$00
712C   A0 00      LDY #$00
712E   4C 42 F1   JMP $F142
7131   A0 01      LDY #$01
7133   20 A8 F1   JSR $F1A8
7136   A0 03      LDY #$03
7138   4C 42 F1   JMP $F142
713B   A0 00      LDY #$00
713D   20 A8 F1   JSR $F1A8
7140   A0 02      LDY #$02
7142   20 71 F1   JSR $F171
7145   A6 08      LDX $08
7147   60         RTS
7148   A0 02      LDY #$02
714A   20 A8 F1   JSR $F1A8
714D   A0 06      LDY #$06
714F   4C 42 F1   JMP $F142
7152   A9 01      LDA #$01
7154   A0 01      LDY #$01
7156   4C 65 F1   JMP $F165
7159   A9 09      LDA #$09
715B   A0 04      LDY #$04
715D   20 65 F1   JSR $F165
7160   E8         INX
7161   E8         INX
7162   A9 09      LDA #$09
7164   C8         INY
7165   86 00      STX $00
7167   18         CLC
7168   65 00      ADC $00
716A   AA         TAX
716B   20 71 F1   JSR $F171
716E   A6 08      LDX $08
7170   60         RTS
7171   B5 CE      LDA $CE,X
7173   99 B8 03   STA $03B8,Y
7176   B5 86      LDA $86,X
7178   38         SEC
7179   ED 1C 07   SBC $071C
717C   99 AD 03   STA $03AD,Y
717F   60         RTS
7180   A2 00      LDX #$00
7182   A0 00      LDY #$00
7184   4C C0 F1   JMP $F1C0
7187   A0 00      LDY #$00
7189   20 A8 F1   JSR $F1A8
718C   A0 02      LDY #$02
718E   4C C0 F1   JMP $F1C0
7191   A0 01      LDY #$01
7193   20 A8 F1   JSR $F1A8
7196   A0 03      LDY #$03
7198   4C C0 F1   JMP $F1C0
719B   A0 02      LDY #$02
719D   20 A8 F1   JSR $F1A8
71A0   A0 06      LDY #$06
71A2   4C C0 F1   JMP $F1C0
71A5   07         ???
71A6   16 0D      ASL $0D,X
71A8   8A         TXA
71A9   18         CLC
71AA   79 A5 F1   ADC $F1A5,Y
71AD   AA         TAX
71AE   60         RTS
71AF   A9 01      LDA #$01
71B1   A0 01      LDY #$01
71B3   4C BA F1   JMP $F1BA
71B6   A9 09      LDA #$09
71B8   A0 04      LDY #$04
71BA   86 00      STX $00
71BC   18         CLC
71BD   65 00      ADC $00
71BF   AA         TAX
71C0   98         TYA
71C1   48         PHA
71C2   20 D7 F1   JSR $F1D7
71C5   0A         ASL A
71C6   0A         ASL A
71C7   0A         ASL A
71C8   0A         ASL A
71C9   05 00      ORA $00
71CB   85 00      STA $00
71CD   68         PLA
71CE   A8         TAY
71CF   A5 00      LDA $00
71D1   99 D0 03   STA $03D0,Y
71D4   A6 08      LDX $08
71D6   60         RTS
71D7   20 F6 F1   JSR $F1F6
71DA   4A         LSR A
71DB   4A         LSR A
71DC   4A         LSR A
71DD   4A         LSR A
71DE   85 00      STA $00
71E0   4C 39 F2   JMP $F239
71E3   7F         ???
71E4   3F         ???
71E5   1F         ???
71E6   0F         ???
71E7   07         ???
71E8   03         ???
71E9   01 00      ORA ($00,X)
71EB   80         ???
71EC   C0 E0      CPY #$E0
71EE   F0 F8      BEQ $71E8
71F0   FC         ???
71F1   FE FF 07   INC $07FF,X
71F4   0F         ???
71F5   07         ???
71F6   86 04      STX $04
71F8   A0 01      LDY #$01
71FA   B9 1C 07   LDA $071C,Y
71FD   38         SEC
71FE   F5 86      SBC $86,X
7200   85 07      STA $07
7202   B9 1A 07   LDA $071A,Y
7205   F5 6D      SBC $6D,X
7207   BE F3 F1   LDX $F1F3,Y
720A   C9 00      CMP #$00
720C   30 10      BMI $721E
720E   BE F4 F1   LDX $F1F4,Y
7211   C9 01      CMP #$01
7213   10 09      BPL $721E
7215   A9 38      LDA #$38
7217   85 06      STA $06
7219   A9 08      LDA #$08
721B   20 6D F2   JSR $F26D
721E   BD E3 F1   LDA $F1E3,X
7221   A6 04      LDX $04
7223   C9 00      CMP #$00
7225   D0 03      BNE $722A
7227   88         DEY
7228   10 D0      BPL $71FA
722A   60         RTS
722B   00         BRK
722C   08         PHP
722D   0C         ???
722E   0E 0F 07   ASL $070F
7231   03         ???
7232   01 00      ORA ($00,X)
7234   04         ???
7235   00         BRK
7236   04         ???
7237   FF         ???
7238   00         BRK
7239   86 04      STX $04
723B   A0 01      LDY #$01
723D   B9 37 F2   LDA $F237,Y
7240   38         SEC
7241   F5 CE      SBC $CE,X
7243   85 07      STA $07
7245   A9 01      LDA #$01
7247   F5 B5      SBC $B5,X
7249   BE 34 F2   LDX $F234,Y
724C   C9 00      CMP #$00
724E   30 10      BMI $7260
7250   BE 35 F2   LDX $F235,Y
7253   C9 01      CMP #$01
7255   10 09      BPL $7260
7257   A9 20      LDA #$20
7259   85 06      STA $06
725B   A9 04      LDA #$04
725D   20 6D F2   JSR $F26D
7260   BD 2B F2   LDA $F22B,X
7263   A6 04      LDX $04
7265   C9 00      CMP #$00
7267   D0 03      BNE $726C
7269   88         DEY
726A   10 D1      BPL $723D
726C   60         RTS
726D   85 05      STA $05
726F   A5 07      LDA $07
7271   C5 06      CMP $06
7273   B0 0C      BCS $7281
7275   4A         LSR A
7276   4A         LSR A
7277   4A         LSR A
7278   29 07      AND #$07
727A   C0 01      CPY #$01
727C   B0 02      BCS $7280
727E   65 05      ADC $05
7280   AA         TAX
7281   60         RTS
7282   A5 03      LDA $03
7284   4A         LSR A
7285   4A         LSR A
7286   A5 00      LDA $00
7288   90 0C      BCC $7296
728A   99 05 02   STA $0205,Y
728D   A5 01      LDA $01
728F   99 01 02   STA $0201,Y
7292   A9 40      LDA #$40
7294   D0 0A      BNE $72A0
7296   99 01 02   STA $0201,Y
7299   A5 01      LDA $01
729B   99 05 02   STA $0205,Y
729E   A9 00      LDA #$00
72A0   05 04      ORA $04
72A2   99 02 02   STA $0202,Y
72A5   99 06 02   STA $0206,Y
72A8   A5 02      LDA $02
72AA   99 00 02   STA $0200,Y
72AD   99 04 02   STA $0204,Y
72B0   A5 05      LDA $05
72B2   99 03 02   STA $0203,Y
72B5   18         CLC
72B6   69 08      ADC #$08
72B8   99 07 02   STA $0207,Y
72BB   A5 02      LDA $02
72BD   18         CLC
72BE   69 08      ADC #$08
72C0   85 02      STA $02
72C2   98         TYA
72C3   18         CLC
72C4   69 08      ADC #$08
72C6   A8         TAY
72C7   E8         INX
72C8   E8         INX
72C9   60         RTS
72CA   FF         ???
72CB   FF         ???
72CC   FF         ???
72CD   FF         ???
72CE   FF         ???
72CF   FF         ???
72D0   AD 70 07   LDA $0770
72D3   D0 04      BNE $72D9
72D5   8D 15 40   STA $4015
72D8   60         RTS
72D9   A9 FF      LDA #$FF
72DB   8D 17 40   STA $4017
72DE   A9 0F      LDA #$0F
72E0   8D 15 40   STA $4015
72E3   AD C6 07   LDA $07C6
72E6   D0 06      BNE $72EE
72E8   A5 FA      LDA $FA
72EA   C9 01      CMP #$01
72EC   D0 5D      BNE $734B
72EE   AD B2 07   LDA $07B2
72F1   D0 23      BNE $7316
72F3   A5 FA      LDA $FA
72F5   F0 66      BEQ $735D
72F7   8D B2 07   STA $07B2
72FA   8D C6 07   STA $07C6
72FD   A9 00      LDA #$00
72FF   8D 15 40   STA $4015
7302   85 F1      STA $F1
7304   85 F2      STA $F2
7306   85 F3      STA $F3
7308   A9 0F      LDA #$0F
730A   8D 15 40   STA $4015
730D   A9 2A      LDA #$2A
730F   8D BB 07   STA $07BB
7312   A9 44      LDA #$44
7314   D0 11      BNE $7327
7316   AD BB 07   LDA $07BB
7319   C9 24      CMP #$24
731B   F0 08      BEQ $7325
731D   C9 1E      CMP #$1E
731F   F0 F1      BEQ $7312
7321   C9 18      CMP #$18
7323   D0 09      BNE $732E
7325   A9 64      LDA #$64
7327   A2 84      LDX #$84
7329   A0 7F      LDY #$7F
732B   20 88 F3   JSR $F388
732E   CE BB 07   DEC $07BB
7331   D0 2A      BNE $735D
7333   A9 00      LDA #$00
7335   8D 15 40   STA $4015
7338   AD B2 07   LDA $07B2
733B   C9 02      CMP #$02
733D   D0 05      BNE $7344
733F   A9 00      LDA #$00
7341   8D C6 07   STA $07C6
7344   A9 00      LDA #$00
7346   8D B2 07   STA $07B2
7349   F0 12      BEQ $735D
734B   20 1B F4   JSR $F41B
734E   20 7C F5   JSR $F57C
7351   20 67 F6   JSR $F667
7354   20 94 F6   JSR $F694
7357   A9 00      LDA #$00
7359   85 FB      STA $FB
735B   85 FC      STA $FC
735D   A9 00      LDA #$00
735F   85 FF      STA $FF
7361   85 FE      STA $FE
7363   85 FD      STA $FD
7365   85 FA      STA $FA
7367   AC C0 07   LDY $07C0
736A   A5 F4      LDA $F4
736C   29 03      AND #$03
736E   F0 07      BEQ $7377
7370   EE C0 07   INC $07C0
7373   C0 30      CPY #$30
7375   90 06      BCC $737D
7377   98         TYA
7378   F0 03      BEQ $737D
737A   CE C0 07   DEC $07C0
737D   8C 11 40   STY $4011
7380   60         RTS
7381   8C 01 40   STY $4001
7384   8E 00 40   STX $4000
7387   60         RTS
7388   20 81 F3   JSR $F381
738B   A2 00      LDX #$00
738D   A8         TAY
738E   B9 01 FF   LDA $FF01,Y
7391   F0 0B      BEQ $739E
7393   9D 02 40   STA $4002,X
7396   B9 00 FF   LDA $FF00,Y
7399   09 08      ORA #$08
739B   9D 03 40   STA $4003,X
739E   60         RTS
739F   8E 04 40   STX $4004
73A2   8C 05 40   STY $4005
73A5   60         RTS
73A6   20 9F F3   JSR $F39F
73A9   A2 04      LDX #$04
73AB   D0 E0      BNE $738D
73AD   A2 08      LDX #$08
73AF   D0 DC      BNE $738D
73B1   9F         ???
73B2   9B         ???
73B3   98         TYA
73B4   96 95      STX $95,Y
73B6   94 92      STY $92,X
73B8   90 90      BCC $734A
73BA   9A         TXS
73BB   97         ???
73BC   95 93      STA $93,X
73BE   92         ???
73BF   A9 40      LDA #$40
73C1   8D BB 07   STA $07BB
73C4   A9 62      LDA #$62
73C6   20 8B F3   JSR $F38B
73C9   A2 99      LDX #$99
73CB   D0 25      BNE $73F2
73CD   A9 26      LDA #$26
73CF   D0 02      BNE $73D3
73D1   A9 18      LDA #$18
73D3   A2 82      LDX #$82
73D5   A0 A7      LDY #$A7
73D7   20 88 F3   JSR $F388
73DA   A9 28      LDA #$28
73DC   8D BB 07   STA $07BB
73DF   AD BB 07   LDA $07BB
73E2   C9 25      CMP #$25
73E4   D0 06      BNE $73EC
73E6   A2 5F      LDX #$5F
73E8   A0 F6      LDY #$F6
73EA   D0 08      BNE $73F4
73EC   C9 20      CMP #$20
73EE   D0 29      BNE $7419
73F0   A2 48      LDX #$48
73F2   A0 BC      LDY #$BC
73F4   20 81 F3   JSR $F381
73F7   D0 20      BNE $7419
73F9   A9 05      LDA #$05
73FB   A0 99      LDY #$99
73FD   D0 04      BNE $7403
73FF   A9 0A      LDA #$0A
7401   A0 93      LDY #$93
7403   A2 9E      LDX #$9E
7405   8D BB 07   STA $07BB
7408   A9 0C      LDA #$0C
740A   20 88 F3   JSR $F388
740D   AD BB 07   LDA $07BB
7410   C9 06      CMP #$06
7412   D0 05      BNE $7419
7414   A9 BB      LDA #$BB
7416   8D 01 40   STA $4001
7419   D0 60      BNE $747B
741B   A4 FF      LDY $FF
741D   F0 20      BEQ $743F
741F   84 F1      STY $F1
7421   30 AA      BMI $73CD
7423   46 FF      LSR $FF
7425   B0 AA      BCS $73D1
7427   46 FF      LSR $FF
7429   B0 D4      BCS $73FF
742B   46 FF      LSR $FF
742D   B0 2C      BCS $745B
742F   46 FF      LSR $FF
7431   B0 4A      BCS $747D
7433   46 FF      LSR $FF
7435   B0 7F      BCS $74B6
7437   46 FF      LSR $FF
7439   B0 BE      BCS $73F9
743B   46 FF      LSR $FF
743D   B0 80      BCS $73BF
743F   A5 F1      LDA $F1
7441   F0 17      BEQ $745A
7443   30 9A      BMI $73DF
7445   4A         LSR A
7446   B0 97      BCS $73DF
7448   4A         LSR A
7449   B0 C2      BCS $740D
744B   4A         LSR A
744C   B0 1B      BCS $7469
744E   4A         LSR A
744F   B0 3C      BCS $748D
7451   4A         LSR A
7452   B0 67      BCS $74BB
7454   4A         LSR A
7455   B0 B6      BCS $740D
7457   4A         LSR A
7458   B0 48      BCS $74A2
745A   60         RTS
745B   A9 0E      LDA #$0E
745D   8D BB 07   STA $07BB
7460   A0 9C      LDY #$9C
7462   A2 9E      LDX #$9E
7464   A9 26      LDA #$26
7466   20 88 F3   JSR $F388
7469   AC BB 07   LDY $07BB
746C   B9 B0 F3   LDA $F3B0,Y
746F   8D 00 40   STA $4000
7472   C0 06      CPY #$06
7474   D0 05      BNE $747B
7476   A9 9E      LDA #$9E
7478   8D 02 40   STA $4002
747B   D0 25      BNE $74A2
747D   A9 0E      LDA #$0E
747F   A0 CB      LDY #$CB
7481   A2 9F      LDX #$9F
7483   8D BB 07   STA $07BB
7486   A9 28      LDA #$28
7488   20 88 F3   JSR $F388
748B   D0 15      BNE $74A2
748D   AC BB 07   LDY $07BB
7490   C0 08      CPY #$08
7492   D0 09      BNE $749D
7494   A9 A0      LDA #$A0
7496   8D 02 40   STA $4002
7499   A9 9F      LDA #$9F
749B   D0 02      BNE $749F
749D   A9 90      LDA #$90
749F   8D 00 40   STA $4000
74A2   CE BB 07   DEC $07BB
74A5   D0 0E      BNE $74B5
74A7   A2 00      LDX #$00
74A9   86 F1      STX $F1
74AB   A2 0E      LDX #$0E
74AD   8E 15 40   STX $4015
74B0   A2 0F      LDX #$0F
74B2   8E 15 40   STX $4015
74B5   60         RTS
74B6   A9 2F      LDA #$2F
74B8   8D BB 07   STA $07BB
74BB   AD BB 07   LDA $07BB
74BE   4A         LSR A
74BF   B0 10      BCS $74D1
74C1   4A         LSR A
74C2   B0 0D      BCS $74D1
74C4   29 02      AND #$02
74C6   F0 09      BEQ $74D1
74C8   A0 91      LDY #$91
74CA   A2 9A      LDX #$9A
74CC   A9 44      LDA #$44
74CE   20 88 F3   JSR $F388
74D1   4C A2 F4   JMP $F4A2
74D4   58         CLI
74D5   02         ???
74D6   54         ???
74D7   56 4E      LSR $4E,X
74D9   44         ???
74DA   4C 52 4C   JMP $4C52
74DD   48         PHA
74DE   3E 36 3E   ROL $3E36,X
74E1   36 30      ROL $30,X
74E3   28         PLP
74E4   4A         LSR A
74E5   50 4A      BVC $7531
74E7   64         ???
74E8   3C         ???
74E9   32         ???
74EA   3C         ???
74EB   32         ???
74EC   2C 24 3A   BIT $3A24
74EF   64         ???
74F0   3A         ???
74F1   34         ???
74F2   2C 22 2C   BIT $2C22
74F5   22         ???
74F6   1C         ???
74F7   14         ???
74F8   14         ???
74F9   04         ???
74FA   22         ???
74FB   24 16      BIT $16
74FD   04         ???
74FE   24 26      BIT $26
7500   18         CLC
7501   04         ???
7502   26 28      ROL $28
7504   1A         ???
7505   04         ???
7506   28         PLP
7507   2A         ROL A
7508   1C         ???
7509   04         ???
750A   2A         ROL A
750B   2C 1E 04   BIT $041E
750E   2C 2E 20   BIT $202E
7511   04         ???
7512   2E 30 22   ROL $2230
7515   04         ???
7516   30 32      BMI $754A
7518   A9 35      LDA #$35
751A   A2 8D      LDX #$8D
751C   D0 04      BNE $7522
751E   A9 06      LDA #$06
7520   A2 98      LDX #$98
7522   8D BD 07   STA $07BD
7525   A0 7F      LDY #$7F
7527   A9 42      LDA #$42
7529   20 A6 F3   JSR $F3A6
752C   AD BD 07   LDA $07BD
752F   C9 30      CMP #$30
7531   D0 05      BNE $7538
7533   A9 54      LDA #$54
7535   8D 06 40   STA $4006
7538   D0 2E      BNE $7568
753A   A9 20      LDA #$20
753C   8D BD 07   STA $07BD
753F   A0 94      LDY #$94
7541   A9 5E      LDA #$5E
7543   D0 0B      BNE $7550
7545   AD BD 07   LDA $07BD
7548   C9 18      CMP #$18
754A   D0 1C      BNE $7568
754C   A0 93      LDY #$93
754E   A9 18      LDA #$18
7550   D0 7F      BNE $75D1
7552   A9 36      LDA #$36
7554   8D BD 07   STA $07BD
7557   AD BD 07   LDA $07BD
755A   4A         LSR A
755B   B0 0B      BCS $7568
755D   A8         TAY
755E   B9 D9 F4   LDA $F4D9,Y
7561   A2 5D      LDX #$5D
7563   A0 7F      LDY #$7F
7565   20 A6 F3   JSR $F3A6
7568   CE BD 07   DEC $07BD
756B   D0 0E      BNE $757B
756D   A2 00      LDX #$00
756F   86 F2      STX $F2
7571   A2 0D      LDX #$0D
7573   8E 15 40   STX $4015
7576   A2 0F      LDX #$0F
7578   8E 15 40   STX $4015
757B   60         RTS
757C   A5 F2      LDA $F2
757E   29 40      AND #$40
7580   D0 65      BNE $75E7
7582   A4 FE      LDY $FE
7584   F0 20      BEQ $75A6
7586   84 F2      STY $F2
7588   30 3E      BMI $75C8
758A   46 FE      LSR $FE
758C   B0 8A      BCS $7518
758E   46 FE      LSR $FE
7590   B0 6A      BCS $75FC
7592   46 FE      LSR $FE
7594   B0 6A      BCS $7600
7596   46 FE      LSR $FE
7598   B0 A0      BCS $753A
759A   46 FE      LSR $FE
759C   B0 80      BCS $751E
759E   46 FE      LSR $FE
75A0   B0 B0      BCS $7552
75A2   46 FE      LSR $FE
75A4   B0 3C      BCS $75E2
75A6   A5 F2      LDA $F2
75A8   F0 17      BEQ $75C1
75AA   30 27      BMI $75D3
75AC   4A         LSR A
75AD   B0 13      BCS $75C2
75AF   4A         LSR A
75B0   B0 5D      BCS $760F
75B2   4A         LSR A
75B3   B0 5A      BCS $760F
75B5   4A         LSR A
75B6   B0 8D      BCS $7545
75B8   4A         LSR A
75B9   B0 07      BCS $75C2
75BB   4A         LSR A
75BC   B0 99      BCS $7557
75BE   4A         LSR A
75BF   B0 26      BCS $75E7
75C1   60         RTS
75C2   4C 2C F5   JMP $F52C
75C5   4C 68 F5   JMP $F568
75C8   A9 38      LDA #$38
75CA   8D BD 07   STA $07BD
75CD   A0 C4      LDY #$C4
75CF   A9 18      LDA #$18
75D1   D0 0B      BNE $75DE
75D3   AD BD 07   LDA $07BD
75D6   C9 08      CMP #$08
75D8   D0 8E      BNE $7568
75DA   A0 A4      LDY #$A4
75DC   A9 5A      LDA #$5A
75DE   A2 9F      LDX #$9F
75E0   D0 83      BNE $7565
75E2   A9 30      LDA #$30
75E4   8D BD 07   STA $07BD
75E7   AD BD 07   LDA $07BD
75EA   A2 03      LDX #$03
75EC   4A         LSR A
75ED   B0 D6      BCS $75C5
75EF   CA         DEX
75F0   D0 FA      BNE $75EC
75F2   A8         TAY
75F3   B9 D3 F4   LDA $F4D3,Y
75F6   A2 82      LDX #$82
75F8   A0 7F      LDY #$7F
75FA   D0 E4      BNE $75E0
75FC   A9 10      LDA #$10
75FE   D0 02      BNE $7602
7600   A9 20      LDA #$20
7602   8D BD 07   STA $07BD
7605   A9 7F      LDA #$7F
7607   8D 05 40   STA $4005
760A   A9 00      LDA #$00
760C   8D BE 07   STA $07BE
760F   EE BE 07   INC $07BE
7612   AD BE 07   LDA $07BE
7615   4A         LSR A
7616   A8         TAY
7617   CC BD 07   CPY $07BD
761A   F0 0C      BEQ $7628
761C   A9 9D      LDA #$9D
761E   8D 04 40   STA $4004
7621   B9 F8 F4   LDA $F4F8,Y
7624   20 A9 F3   JSR $F3A9
7627   60         RTS
7628   4C 6D F5   JMP $F56D
762B   01 0E      ORA ($0E,X)
762D   0E 0D 0B   ASL $0B0D
7630   06 0C      ASL $0C
7632   0F         ???
7633   0A         ASL A
7634   09 03      ORA #$03
7636   0D 08 0D   ORA $0D08
7639   06 0C      ASL $0C
763B   A9 20      LDA #$20
763D   8D BF 07   STA $07BF
7640   AD BF 07   LDA $07BF
7643   4A         LSR A
7644   90 12      BCC $7658
7646   A8         TAY
7647   BE 2B F6   LDX $F62B,Y
764A   B9 EA FF   LDA $FFEA,Y
764D   8D 0C 40   STA $400C
7650   8E 0E 40   STX $400E
7653   A9 18      LDA #$18
7655   8D 0F 40   STA $400F
7658   CE BF 07   DEC $07BF
765B   D0 09      BNE $7666
765D   A9 F0      LDA #$F0
765F   8D 0C 40   STA $400C
7662   A9 00      LDA #$00
7664   85 F3      STA $F3
7666   60         RTS
7667   A4 FD      LDY $FD
7669   F0 0A      BEQ $7675
766B   84 F3      STY $F3
766D   46 FD      LSR $FD
766F   B0 CA      BCS $763B
7671   46 FD      LSR $FD
7673   B0 0B      BCS $7680
7675   A5 F3      LDA $F3
7677   F0 06      BEQ $767F
7679   4A         LSR A
767A   B0 C4      BCS $7640
767C   4A         LSR A
767D   B0 06      BCS $7685
767F   60         RTS
7680   A9 40      LDA #$40
7682   8D BF 07   STA $07BF
7685   AD BF 07   LDA $07BF
7688   4A         LSR A
7689   A8         TAY
768A   A2 0F      LDX #$0F
768C   B9 C9 FF   LDA $FFC9,Y
768F   D0 BC      BNE $764D
7691   4C 3A F7   JMP $F73A
7694   A5 FC      LDA $FC
7696   D0 0C      BNE $76A4
7698   A5 FB      LDA $FB
769A   D0 2C      BNE $76C8
769C   AD B1 07   LDA $07B1
769F   05 F4      ORA $F4
76A1   D0 EE      BNE $7691
76A3   60         RTS
76A4   8D B1 07   STA $07B1
76A7   C9 01      CMP #$01
76A9   D0 06      BNE $76B1
76AB   20 A7 F4   JSR $F4A7
76AE   20 71 F5   JSR $F571
76B1   A6 F4      LDX $F4
76B3   8E C5 07   STX $07C5
76B6   A0 00      LDY #$00
76B8   8C C4 07   STY $07C4
76BB   84 F4      STY $F4
76BD   C9 40      CMP #$40
76BF   D0 30      BNE $76F1
76C1   A2 08      LDX #$08
76C3   8E C4 07   STX $07C4
76C6   D0 29      BNE $76F1
76C8   C9 04      CMP #$04
76CA   D0 03      BNE $76CF
76CC   20 A7 F4   JSR $F4A7
76CF   A0 10      LDY #$10
76D1   8C C7 07   STY $07C7
76D4   A0 00      LDY #$00
76D6   8C B1 07   STY $07B1
76D9   85 F4      STA $F4
76DB   C9 01      CMP #$01
76DD   D0 0E      BNE $76ED
76DF   EE C7 07   INC $07C7
76E2   AC C7 07   LDY $07C7
76E5   C0 32      CPY #$32
76E7   D0 0C      BNE $76F5
76E9   A0 11      LDY #$11
76EB   D0 E4      BNE $76D1
76ED   A0 08      LDY #$08
76EF   84 F7      STY $F7
76F1   C8         INY
76F2   4A         LSR A
76F3   90 FC      BCC $76F1
76F5   B9 0C F9   LDA $F90C,Y
76F8   A8         TAY
76F9   B9 0D F9   LDA $F90D,Y
76FC   85 F0      STA $F0
76FE   B9 0E F9   LDA $F90E,Y
7701   85 F5      STA $F5
7703   B9 0F F9   LDA $F90F,Y
7706   85 F6      STA $F6
7708   B9 10 F9   LDA $F910,Y
770B   85 F9      STA $F9
770D   B9 11 F9   LDA $F911,Y
7710   85 F8      STA $F8
7712   B9 12 F9   LDA $F912,Y
7715   8D B0 07   STA $07B0
7718   8D C1 07   STA $07C1
771B   A9 01      LDA #$01
771D   8D B4 07   STA $07B4
7720   8D B6 07   STA $07B6
7723   8D B9 07   STA $07B9
7726   8D BA 07   STA $07BA
7729   A9 00      LDA #$00
772B   85 F7      STA $F7
772D   8D CA 07   STA $07CA
7730   A9 0B      LDA #$0B
7732   8D 15 40   STA $4015
7735   A9 0F      LDA #$0F
7737   8D 15 40   STA $4015
773A   CE B4 07   DEC $07B4
773D   D0 5F      BNE $779E
773F   A4 F7      LDY $F7
7741   E6 F7      INC $F7
7743   B1 F5      LDA ($F5),Y
7745   F0 04      BEQ $774B
7747   10 3D      BPL $7786
7749   D0 2F      BNE $777A
774B   AD B1 07   LDA $07B1
774E   C9 40      CMP #$40
7750   D0 05      BNE $7757
7752   AD C5 07   LDA $07C5
7755   D0 1D      BNE $7774
7757   29 04      AND #$04
7759   D0 1C      BNE $7777
775B   A5 F4      LDA $F4
775D   29 5F      AND #$5F
775F   D0 13      BNE $7774
7761   A9 00      LDA #$00
7763   85 F4      STA $F4
7765   8D B1 07   STA $07B1
7768   8D 08 40   STA $4008
776B   A9 90      LDA #$90
776D   8D 00 40   STA $4000
7770   8D 04 40   STA $4004
7773   60         RTS
7774   4C D4 F6   JMP $F6D4
7777   4C A4 F6   JMP $F6A4
777A   20 CB F8   JSR $F8CB
777D   8D B3 07   STA $07B3
7780   A4 F7      LDY $F7
7782   E6 F7      INC $F7
7784   B1 F5      LDA ($F5),Y
7786   A6 F2      LDX $F2
7788   D0 0E      BNE $7798
778A   20 A9 F3   JSR $F3A9
778D   F0 03      BEQ $7792
778F   20 D8 F8   JSR $F8D8
7792   8D B5 07   STA $07B5
7795   20 9F F3   JSR $F39F
7798   AD B3 07   LDA $07B3
779B   8D B4 07   STA $07B4
779E   A5 F2      LDA $F2
77A0   D0 1A      BNE $77BC
77A2   AD B1 07   LDA $07B1
77A5   29 91      AND #$91
77A7   D0 13      BNE $77BC
77A9   AC B5 07   LDY $07B5
77AC   F0 03      BEQ $77B1
77AE   CE B5 07   DEC $07B5
77B1   20 F4 F8   JSR $F8F4
77B4   8D 04 40   STA $4004
77B7   A2 7F      LDX #$7F
77B9   8E 05 40   STX $4005
77BC   A4 F8      LDY $F8
77BE   F0 5A      BEQ $781A
77C0   CE B6 07   DEC $07B6
77C3   D0 32      BNE $77F7
77C5   A4 F8      LDY $F8
77C7   E6 F8      INC $F8
77C9   B1 F5      LDA ($F5),Y
77CB   D0 0F      BNE $77DC
77CD   A9 83      LDA #$83
77CF   8D 00 40   STA $4000
77D2   A9 94      LDA #$94
77D4   8D 01 40   STA $4001
77D7   8D CA 07   STA $07CA
77DA   D0 E9      BNE $77C5
77DC   20 C5 F8   JSR $F8C5
77DF   8D B6 07   STA $07B6
77E2   A4 F1      LDY $F1
77E4   D0 34      BNE $781A
77E6   8A         TXA
77E7   29 3E      AND #$3E
77E9   20 8B F3   JSR $F38B
77EC   F0 03      BEQ $77F1
77EE   20 D8 F8   JSR $F8D8
77F1   8D B7 07   STA $07B7
77F4   20 81 F3   JSR $F381
77F7   A5 F1      LDA $F1
77F9   D0 1F      BNE $781A
77FB   AD B1 07   LDA $07B1
77FE   29 91      AND #$91
7800   D0 0E      BNE $7810
7802   AC B7 07   LDY $07B7
7805   F0 03      BEQ $780A
7807   CE B7 07   DEC $07B7
780A   20 F4 F8   JSR $F8F4
780D   8D 00 40   STA $4000
7810   AD CA 07   LDA $07CA
7813   D0 02      BNE $7817
7815   A9 7F      LDA #$7F
7817   8D 01 40   STA $4001
781A   A5 F9      LDA $F9
781C   CE B9 07   DEC $07B9
781F   D0 4C      BNE $786D
7821   A4 F9      LDY $F9
7823   E6 F9      INC $F9
7825   B1 F5      LDA ($F5),Y
7827   F0 41      BEQ $786A
7829   10 13      BPL $783E
782B   20 CB F8   JSR $F8CB
782E   8D B8 07   STA $07B8
7831   A9 1F      LDA #$1F
7833   8D 08 40   STA $4008
7836   A4 F9      LDY $F9
7838   E6 F9      INC $F9
783A   B1 F5      LDA ($F5),Y
783C   F0 2C      BEQ $786A
783E   20 AD F3   JSR $F3AD
7841   AE B8 07   LDX $07B8
7844   8E B9 07   STX $07B9
7847   AD B1 07   LDA $07B1
784A   29 6E      AND #$6E
784C   D0 06      BNE $7854
784E   A5 F4      LDA $F4
7850   29 0A      AND #$0A
7852   F0 19      BEQ $786D
7854   8A         TXA
7855   C9 12      CMP #$12
7857   B0 0F      BCS $7868
7859   AD B1 07   LDA $07B1
785C   29 08      AND #$08
785E   F0 04      BEQ $7864
7860   A9 0F      LDA #$0F
7862   D0 06      BNE $786A
7864   A9 1F      LDA #$1F
7866   D0 02      BNE $786A
7868   A9 FF      LDA #$FF
786A   8D 08 40   STA $4008
786D   A5 F4      LDA $F4
786F   29 F3      AND #$F3
7871   F0 51      BEQ $78C4
7873   CE BA 07   DEC $07BA
7876   D0 4C      BNE $78C4
7878   AC B0 07   LDY $07B0
787B   EE B0 07   INC $07B0
787E   B1 F5      LDA ($F5),Y
7880   D0 08      BNE $788A
7882   AD C1 07   LDA $07C1
7885   8D B0 07   STA $07B0
7888   D0 EE      BNE $7878
788A   20 C5 F8   JSR $F8C5
788D   8D BA 07   STA $07BA
7890   8A         TXA
7891   29 3E      AND #$3E
7893   F0 24      BEQ $78B9
7895   C9 30      CMP #$30
7897   F0 18      BEQ $78B1
7899   C9 20      CMP #$20
789B   F0 0C      BEQ $78A9
789D   29 10      AND #$10
789F   F0 18      BEQ $78B9
78A1   A9 1C      LDA #$1C
78A3   A2 03      LDX #$03
78A5   A0 18      LDY #$18
78A7   D0 12      BNE $78BB
78A9   A9 1C      LDA #$1C
78AB   A2 0C      LDX #$0C
78AD   A0 18      LDY #$18
78AF   D0 0A      BNE $78BB
78B1   A9 1C      LDA #$1C
78B3   A2 03      LDX #$03
78B5   A0 58      LDY #$58
78B7   D0 02      BNE $78BB
78B9   A9 10      LDA #$10
78BB   8D 0C 40   STA $400C
78BE   8E 0E 40   STX $400E
78C1   8C 0F 40   STY $400F
78C4   60         RTS
78C5   AA         TAX
78C6   6A         ROR A
78C7   8A         TXA
78C8   2A         ROL A
78C9   2A         ROL A
78CA   2A         ROL A
78CB   29 07      AND #$07
78CD   18         CLC
78CE   65 F0      ADC $F0
78D0   6D C4 07   ADC $07C4
78D3   A8         TAY
78D4   B9 66 FF   LDA $FF66,Y
78D7   60         RTS
78D8   AD B1 07   LDA $07B1
78DB   29 08      AND #$08
78DD   F0 04      BEQ $78E3
78DF   A9 04      LDA #$04
78E1   D0 0C      BNE $78EF
78E3   A5 F4      LDA $F4
78E5   29 7D      AND #$7D
78E7   F0 04      BEQ $78ED
78E9   A9 08      LDA #$08
78EB   D0 02      BNE $78EF
78ED   A9 28      LDA #$28
78EF   A2 82      LDX #$82
78F1   A0 7F      LDY #$7F
78F3   60         RTS
78F4   AD B1 07   LDA $07B1
78F7   29 08      AND #$08
78F9   F0 04      BEQ $78FF
78FB   B9 96 FF   LDA $FF96,Y
78FE   60         RTS
78FF   A5 F4      LDA $F4
7901   29 7D      AND #$7D
7903   F0 04      BEQ $7909
7905   B9 9A FF   LDA $FF9A,Y
7908   60         RTS
7909   B9 A2 FF   LDA $FFA2,Y
790C   60         RTS
790D   A5 59      LDA $59
790F   54         ???
7910   64         ???
7911   59 3C 31   EOR $313C,Y
7914   4B         ???
7915   69 5E      ADC #$5E
7917   46 4F      LSR $4F
7919   36 8D      ROL $8D,X
791B   36 4B      ROL $4B,X
791D   8D 69 69   STA $6969
7920   6F         ???
7921   75 6F      ADC $6F,X
7923   7B         ???
7924   6F         ???
7925   75 6F      ADC $6F,X
7927   7B         ???
7928   81 87      STA ($87,X)
792A   81 8D      STA ($8D,X)
792C   69 69      ADC #$69
792E   93         ???
792F   99 93 9F   STA $9F93,Y
7932   93         ???
7933   99 93 9F   STA $9F93,Y
7936   81 87      STA ($87,X)
7938   81 8D      STA ($8D,X)
793A   93         ???
793B   99 93 9F   STA $9F93,Y
793E   08         PHP
793F   72         ???
7940   FC         ???
7941   27         ???
7942   18         CLC
7943   20 B8 F9   JSR $F9B8
7946   2E 1A 40   ROL $401A
7949   20 B0 FC   JSR $FCB0
794C   3D 21 20   AND $2021,X
794F   C4 FC      CPY $FC
7951   3F         ???
7952   1D 18 11   ORA $1118,X
7955   FD 00 00   SBC $0000,X
7958   08         PHP
7959   1C         ???
795A   FA         ???
795B   00         BRK
795C   00         BRK
795D   A4 FB      LDY $FB
795F   93         ???
7960   62         ???
7961   10 C8      BPL $792B
7963   FE 24 14   INC $1424,X
7966   18         CLC
7967   45 FC      EOR $FC
7969   1E 14 08   ASL $0814,X
796C   52         ???
796D   FD A0 70   SBC $70A0,X
7970   68         PLA
7971   08         PHP
7972   51 FE      EOR ($FE),Y
7974   4C 24 18   JMP $1824
7977   01 FA      ORA ($FA,X)
7979   2D 1C B8   AND $B81C
797C   18         CLC
797D   49 FA      EOR #$FA
797F   20 12 70   JSR $7012
7982   18         CLC
7983   75 FA      ADC $FA,X
7985   1B         ???
7986   10 44      BPL $79CC
7988   18         CLC
7989   9D FA 11   STA $11FA,X
798C   0A         ASL A
798D   1C         ???
798E   18         CLC
798F   C2         ???
7990   FA         ???
7991   2D 10 58   AND $5810
7994   18         CLC
7995   DB         ???
7996   FA         ???
7997   14         ???
7998   0D 3F 18   ORA $183F
799B   F9 FA 15   SBC $15FA,Y
799E   0D 21 18   ORA $1821
79A1   25 FB      AND $FB
79A3   18         CLC
79A4   10 7A      BPL $7A20
79A6   18         CLC
79A7   4B         ???
79A8   FB         ???
79A9   19 0F 54   ORA $540F,Y
79AC   18         CLC
79AD   74         ???
79AE   FB         ???
79AF   1E 12 2B   ASL $2B12,X
79B2   18         CLC
79B3   72         ???
79B4   FB         ???
79B5   1E 0F 2D   ASL $2D0F,X
79B8   84 2C      STY $2C
79BA   2C 2C 82   BIT $822C
79BD   04         ???
79BE   2C 04 85   BIT $8504
79C1   2C 84 2C   BIT $2C84
79C4   2C 2A 2A   BIT $2A2A
79C7   2A         ROL A
79C8   82         ???
79C9   04         ???
79CA   2A         ROL A
79CB   04         ???
79CC   85 2A      STA $2A
79CE   84 2A      STY $2A
79D0   2A         ROL A
79D1   00         BRK
79D2   1F         ???
79D3   1F         ???
79D4   1F         ???
79D5   98         TYA
79D6   1F         ???
79D7   1F         ???
79D8   98         TYA
79D9   9E         ???
79DA   98         TYA
79DB   1F         ???
79DC   1D 1D 1D   ORA $1D1D,X
79DF   94 1D      STY $1D,X
79E1   1D 94 9C   ORA $9C94,X
79E4   94 1D      STY $1D,X
79E6   86 18      STX $18
79E8   85 26      STA $26
79EA   30 84      BMI $7970
79EC   04         ???
79ED   26 30      ROL $30
79EF   86 14      STX $14
79F1   85 22      STA $22
79F3   2C 84 04   BIT $0484
79F6   22         ???
79F7   2C 21 D0   BIT $D021
79FA   C4 D0      CPY $D0
79FC   31 D0      AND ($D0),Y
79FE   C4 D0      CPY $D0
7A00   00         BRK
7A01   85 2C      STA $2C
7A03   22         ???
7A04   1C         ???
7A05   84 26      STY $26
7A07   2A         ROL A
7A08   82         ???
7A09   28         PLP
7A0A   26 04      ROL $04
7A0C   87         ???
7A0D   22         ???
7A0E   34         ???
7A0F   3A         ???
7A10   82         ???
7A11   40         RTI
7A12   04         ???
7A13   36 84      ROL $84,X
7A15   3A         ???
7A16   34         ???
7A17   82         ???
7A18   2C 30 85   BIT $8530
7A1B   2A         ROL A
7A1C   00         BRK
7A1D   5D 55 4D   EOR $4D55,X
7A20   15 19      ORA $19,X
7A22   96 15      STX $15,Y
7A24   D5 E3      CMP $E3,X
7A26   EB         ???
7A27   2D A6 2B   AND $2BA6
7A2A   27         ???
7A2B   9C         ???
7A2C   9E         ???
7A2D   59 85 22   EOR $2285,Y
7A30   1C         ???
7A31   14         ???
7A32   84 1E      STY $1E
7A34   22         ???
7A35   82         ???
7A36   20 1E 04   JSR $041E
7A39   87         ???
7A3A   1C         ???
7A3B   2C 34 82   BIT $8234
7A3E   36 04      ROL $04,X
7A40   30 34      BMI $7A76
7A42   04         ???
7A43   2C 04 26   BIT $2604
7A46   2A         ROL A
7A47   85 22      STA $22
7A49   84 04      STY $04
7A4B   82         ???
7A4C   3A         ???
7A4D   38         SEC
7A4E   36 32      ROL $32,X
7A50   04         ???
7A51   34         ???
7A52   04         ???
7A53   24 26      BIT $26
7A55   2C 04 26   BIT $2604
7A58   2C 30 00   BIT $0030
7A5B   05 B4      ORA $B4
7A5D   B2         ???
7A5E   B0 2B      BCS $7A8B
7A60   AC 84 9C   LDY $9C84
7A63   9E         ???
7A64   A2 84      LDX #$84
7A66   94 9C      STY $9C,X
7A68   9E         ???
7A69   85 14      STA $14
7A6B   22         ???
7A6C   84 2C      STY $2C
7A6E   85 1E      STA $1E
7A70   82         ???
7A71   2C 84 2C   BIT $2C84
7A74   1E 84 04   ASL $0484,X
7A77   82         ???
7A78   3A         ???
7A79   38         SEC
7A7A   36 32      ROL $32,X
7A7C   04         ???
7A7D   34         ???
7A7E   04         ???
7A7F   64         ???
7A80   04         ???
7A81   64         ???
7A82   86 64      STX $64
7A84   00         BRK
7A85   05 B4      ORA $B4
7A87   B2         ???
7A88   B0 2B      BCS $7AB5
7A8A   AC 84 37   LDY $3784
7A8D   B6 B6      LDX $B6,Y
7A8F   45 85      EOR $85
7A91   14         ???
7A92   1C         ???
7A93   82         ???
7A94   22         ???
7A95   84 2C      STY $2C
7A97   4E 82 4E   LSR $4E82
7A9A   84 4E      STY $4E
7A9C   22         ???
7A9D   84 04      STY $04
7A9F   85 32      STA $32
7AA1   85 30      STA $30
7AA3   86 2C      STX $2C
7AA5   04         ???
7AA6   00         BRK
7AA7   05 A4      ORA $A4
7AA9   05 9E      ORA $9E
7AAB   05 9D      ORA $9D
7AAD   85 84      STA $84
7AAF   14         ???
7AB0   85 24      STA $24
7AB2   28         PLP
7AB3   2C 82 22   BIT $2282
7AB6   84 22      STY $22
7AB8   14         ???
7AB9   21 D0      AND ($D0,X)
7ABB   C4 D0      CPY $D0
7ABD   31 D0      AND ($D0),Y
7ABF   C4 D0      CPY $D0
7AC1   00         BRK
7AC2   82         ???
7AC3   2C 84 2C   BIT $2C84
7AC6   2C 82 2C   BIT $2C82
7AC9   30 04      BMI $7ACF
7ACB   34         ???
7ACC   2C 04 26   BIT $2604
7ACF   86 22      STX $22
7AD1   00         BRK
7AD2   A4 25      LDY $25
7AD4   25 A4      AND $A4
7AD6   29 A2      AND #$A2
7AD8   1D 9C 95   ORA $959C,X
7ADB   82         ???
7ADC   2C 2C 04   BIT $042C
7ADF   2C 04 2C   BIT $2C04
7AE2   30 85      BMI $7A69
7AE4   34         ???
7AE5   04         ???
7AE6   04         ???
7AE7   00         BRK
7AE8   A4 25      LDY $25
7AEA   25 A4      AND $A4
7AEC   A8         TAY
7AED   63         ???
7AEE   04         ???
7AEF   85 0E      STA $0E
7AF1   1A         ???
7AF2   84 24      STY $24
7AF4   85 22      STA $22
7AF6   14         ???
7AF7   84 0C      STY $0C
7AF9   82         ???
7AFA   34         ???
7AFB   84 34      STY $34
7AFD   34         ???
7AFE   82         ???
7AFF   2C 84 34   BIT $3484
7B02   86 3A      STX $3A
7B04   04         ???
7B05   00         BRK
7B06   A0 21      LDY #$21
7B08   21 A0      AND ($A0,X)
7B0A   21 2B      AND ($2B,X)
7B0C   05 A3      ORA $A3
7B0E   82         ???
7B0F   18         CLC
7B10   84 18      STY $18
7B12   18         CLC
7B13   82         ???
7B14   18         CLC
7B15   18         CLC
7B16   04         ???
7B17   86 3A      STX $3A
7B19   22         ???
7B1A   31 90      AND ($90),Y
7B1C   31 90      AND ($90),Y
7B1E   31 71      AND ($71),Y
7B20   31 90      AND ($90),Y
7B22   90 90      BCC $7AB4
7B24   00         BRK
7B25   82         ???
7B26   34         ???
7B27   84 2C      STY $2C
7B29   85 22      STA $22
7B2B   84 24      STY $24
7B2D   82         ???
7B2E   26 36      ROL $36
7B30   04         ???
7B31   36 86      ROL $86,X
7B33   26 00      ROL $00
7B35   AC 27 5D   LDY $5D27
7B38   1D 9E 2D   ORA $2D9E,X
7B3B   AC 9F 85   LDY $859F
7B3E   14         ???
7B3F   82         ???
7B40   20 84 22   JSR $2284
7B43   2C 1E 1E   BIT $1E1E
7B46   82         ???
7B47   2C 2C 1E   BIT $1E2C
7B4A   04         ???
7B4B   87         ???
7B4C   2A         ROL A
7B4D   40         RTI
7B4E   40         RTI
7B4F   40         RTI
7B50   3A         ???
7B51   36 82      ROL $82,X
7B53   34         ???
7B54   2C 04 26   BIT $2604
7B57   86 22      STX $22
7B59   00         BRK
7B5A   E3         ???
7B5B   F7         ???
7B5C   F7         ???
7B5D   F7         ???
7B5E   F5 F1      SBC $F1,X
7B60   AC 27 9E   LDY $9E27
7B63   9D 85 18   STA $1885,X
7B66   82         ???
7B67   1E 84 22   ASL $2284,X
7B6A   2A         ROL A
7B6B   22         ???
7B6C   22         ???
7B6D   82         ???
7B6E   2C 2C 22   BIT $222C
7B71   04         ???
7B72   86 04      STX $04
7B74   82         ???
7B75   2A         ROL A
7B76   36 04      ROL $04,X
7B78   36 87      ROL $87,X
7B7A   36 34      ROL $34,X
7B7C   30 86      BMI $7B04
7B7E   2C 04 00   BIT $0004
7B81   00         BRK
7B82   68         PLA
7B83   6A         ROR A
7B84   6C 45 A2   JMP ($A245)
7B87   31 B0      AND ($B0),Y
7B89   F1 ED      SBC ($ED),Y
7B8B   EB         ???
7B8C   A2 1D      LDX #$1D
7B8E   9C         ???
7B8F   95 86      STA $86,X
7B91   04         ???
7B92   85 22      STA $22
7B94   82         ???
7B95   22         ???
7B96   87         ???
7B97   22         ???
7B98   26 2A      ROL $2A
7B9A   84 2C      STY $2C
7B9C   22         ???
7B9D   86 14      STX $14
7B9F   51 90      EOR ($90),Y
7BA1   31 11      AND ($11),Y
7BA3   00         BRK
7BA4   80         ???
7BA5   22         ???
7BA6   28         PLP
7BA7   22         ???
7BA8   26 22      ROL $22
7BAA   24 22      BIT $22
7BAC   26 22      ROL $22
7BAE   28         PLP
7BAF   22         ???
7BB0   2A         ROL A
7BB1   22         ???
7BB2   28         PLP
7BB3   22         ???
7BB4   26 22      ROL $22
7BB6   28         PLP
7BB7   22         ???
7BB8   26 22      ROL $22
7BBA   24 22      BIT $22
7BBC   26 22      ROL $22
7BBE   28         PLP
7BBF   22         ???
7BC0   2A         ROL A
7BC1   22         ???
7BC2   28         PLP
7BC3   22         ???
7BC4   26 20      ROL $20
7BC6   26 20      ROL $20
7BC8   24 20      BIT $20
7BCA   26 20      ROL $20
7BCC   28         PLP
7BCD   20 26 20   JSR $2026
7BD0   28         PLP
7BD1   20 26 20   JSR $2026
7BD4   24 20      BIT $20
7BD6   26 20      ROL $20
7BD8   24 20      BIT $20
7BDA   26 20      ROL $20
7BDC   28         PLP
7BDD   20 26 20   JSR $2026
7BE0   28         PLP
7BE1   20 26 20   JSR $2026
7BE4   24 28      BIT $28
7BE6   30 28      BMI $7C10
7BE8   32         ???
7BE9   28         PLP
7BEA   30 28      BMI $7C14
7BEC   2E 28 30   ROL $3028
7BEF   28         PLP
7BF0   2E 28 2C   ROL $2C28
7BF3   28         PLP
7BF4   2E 28 30   ROL $3028
7BF7   28         PLP
7BF8   32         ???
7BF9   28         PLP
7BFA   30 28      BMI $7C24
7BFC   2E 28 30   ROL $3028
7BFF   28         PLP
7C00   2E 28 2C   ROL $2C28
7C03   28         PLP
7C04   2E 00 04   ROL $0400
7C07   70 6E      BVS $7C77
7C09   6C 6E 70   JMP ($706E)
7C0C   72         ???
7C0D   70 6E      BVS $7C7D
7C0F   70 6E      BVS $7C7F
7C11   6C 6E 70   JMP ($706E)
7C14   72         ???
7C15   70 6E      BVS $7C85
7C17   6E 6C 6E   ROR $6E6C
7C1A   70 6E      BVS $7C8A
7C1C   70 6E      BVS $7C8C
7C1E   6C 6E 6C   JMP ($6C6E)
7C21   6E 70 6E   ROR $6E70
7C24   70 6E      BVS $7C94
7C26   6C 76 78   JMP ($7876)
7C29   76 74      ROR $74,X
7C2B   76 74      ROR $74,X
7C2D   72         ???
7C2E   74         ???
7C2F   76 78      ROR $78,X
7C31   76 74      ROR $74,X
7C33   76 74      ROR $74,X
7C35   72         ???
7C36   74         ???
7C37   84 1A      STY $1A
7C39   83         ???
7C3A   18         CLC
7C3B   20 84 1E   JSR $1E84
7C3E   83         ???
7C3F   1C         ???
7C40   28         PLP
7C41   26 1C      ROL $1C
7C43   1A         ???
7C44   1C         ???
7C45   82         ???
7C46   2C 04 04   BIT $0404
7C49   22         ???
7C4A   04         ???
7C4B   04         ???
7C4C   84 1C      STY $1C
7C4E   87         ???
7C4F   26 2A      ROL $2A
7C51   26 84      ROL $84
7C53   24 28      BIT $28
7C55   24 80      BIT $80
7C57   22         ???
7C58   00         BRK
7C59   9C         ???
7C5A   05 94      ORA $94
7C5C   05 0D      ORA $0D
7C5E   9F         ???
7C5F   1E 9C 98   ASL $989C,X
7C62   9D 82 22   STA $2282,X
7C65   04         ???
7C66   04         ???
7C67   1C         ???
7C68   04         ???
7C69   04         ???
7C6A   84 14      STY $14
7C6C   86 1E      STX $1E
7C6E   80         ???
7C6F   16 80      ASL $80,X
7C71   14         ???
7C72   81 1C      STA ($1C,X)
7C74   30 04      BMI $7C7A
7C76   30 30      BMI $7CA8
7C78   04         ???
7C79   1E 32 04   ASL $0432,X
7C7C   32         ???
7C7D   32         ???
7C7E   04         ???
7C7F   20 34 04   JSR $0434
7C82   34         ???
7C83   34         ???
7C84   04         ???
7C85   36 04      ROL $04,X
7C87   84 36      STY $36
7C89   00         BRK
7C8A   46 A4      LSR $A4
7C8C   64         ???
7C8D   A4 48      LDY $48
7C8F   A6 66      LDX $66
7C91   A6 4A      LDX $4A
7C93   A8         TAY
7C94   68         PLA
7C95   A8         TAY
7C96   6A         ROR A
7C97   44         ???
7C98   2B         ???
7C99   81 2A      STA ($2A,X)
7C9B   42         ???
7C9C   04         ???
7C9D   42         ???
7C9E   42         ???
7C9F   04         ???
7CA0   2C 64 04   BIT $0464
7CA3   64         ???
7CA4   64         ???
7CA5   04         ???
7CA6   2E 46 04   ROL $0446
7CA9   46 46      LSR $46
7CAB   04         ???
7CAC   22         ???
7CAD   04         ???
7CAE   84 22      STY $22
7CB0   87         ???
7CB1   04         ???
7CB2   06 0C      ASL $0C
7CB4   14         ???
7CB5   1C         ???
7CB6   22         ???
7CB7   86 2C      STX $2C
7CB9   22         ???
7CBA   87         ???
7CBB   04         ???
7CBC   60         RTS
7CBD   0E 14 1A   ASL $1A14
7CC0   24 86      BIT $86
7CC2   2C 24 87   BIT $8724
7CC5   04         ???
7CC6   08         PHP
7CC7   10 18      BPL $7CE1
7CC9   1E 28 86   ASL $8628,X
7CCC   30 30      BMI $7CFE
7CCE   80         ???
7CCF   64         ???
7CD0   00         BRK
7CD1   CD D5 DD   CMP $DDD5
7CD4   E3         ???
7CD5   ED F5 BB   SBC $BBF5
7CD8   B5 CF      LDA $CF,X
7CDA   D5 DB      CMP $DB,X
7CDC   E5 ED      SBC $ED
7CDE   F3         ???
7CDF   BD B3 D1   LDA $D1B3,X
7CE2   D9 DF E9   CMP $E9DF,Y
7CE5   F1 F7      SBC ($F7),Y
7CE7   BF         ???
7CE8   FF         ???
7CE9   FF         ???
7CEA   FF         ???
7CEB   34         ???
7CEC   00         BRK
7CED   86 04      STX $04
7CEF   87         ???
7CF0   14         ???
7CF1   1C         ???
7CF2   22         ???
7CF3   86 34      STX $34
7CF5   84 2C      STY $2C
7CF7   04         ???
7CF8   04         ???
7CF9   04         ???
7CFA   87         ???
7CFB   14         ???
7CFC   1A         ???
7CFD   24 86      BIT $86
7CFF   32         ???
7D00   84 2C      STY $2C
7D02   04         ???
7D03   86 04      STX $04
7D05   87         ???
7D06   18         CLC
7D07   1E 28 86   ASL $8628,X
7D0A   36 87      ROL $87,X
7D0C   30 30      BMI $7D3E
7D0E   30 80      BMI $7C90
7D10   2C 82 14   BIT $1482
7D13   2C 62 26   BIT $2662
7D16   10 28      BPL $7D40
7D18   80         ???
7D19   04         ???
7D1A   82         ???
7D1B   14         ???
7D1C   2C 62 26   BIT $2662
7D1F   10 28      BPL $7D49
7D21   80         ???
7D22   04         ???
7D23   82         ???
7D24   08         PHP
7D25   1E 5E 18   ASL $185E,X
7D28   60         RTS
7D29   1A         ???
7D2A   80         ???
7D2B   04         ???
7D2C   82         ???
7D2D   08         PHP
7D2E   1E 5E 18   ASL $185E,X
7D31   60         RTS
7D32   1A         ???
7D33   86 04      STX $04
7D35   83         ???
7D36   1A         ???
7D37   18         CLC
7D38   16 84      ASL $84,X
7D3A   14         ???
7D3B   1A         ???
7D3C   18         CLC
7D3D   0E 0C 16   ASL $160C
7D40   83         ???
7D41   14         ???
7D42   20 1E 1C   JSR $1C1E
7D45   28         PLP
7D46   26 87      ROL $87
7D48   24 1A      BIT $1A
7D4A   12         ???
7D4B   10 62      BPL $7DAF
7D4D   0E 80 04   ASL $0480
7D50   04         ???
7D51   00         BRK
7D52   82         ???
7D53   18         CLC
7D54   1C         ???
7D55   20 22 26   JSR $2622
7D58   28         PLP
7D59   81 2A      STA ($2A,X)
7D5B   2A         ROL A
7D5C   2A         ROL A
7D5D   04         ???
7D5E   2A         ROL A
7D5F   04         ???
7D60   83         ???
7D61   2A         ROL A
7D62   82         ???
7D63   22         ???
7D64   86 34      STX $34
7D66   32         ???
7D67   34         ???
7D68   81 04      STA ($04,X)
7D6A   22         ???
7D6B   26 2A      ROL $2A
7D6D   2C 30 86   BIT $8630
7D70   34         ???
7D71   83         ???
7D72   32         ???
7D73   82         ???
7D74   36 84      ROL $84,X
7D76   34         ???
7D77   85 04      STA $04
7D79   81 22      STA ($22,X)
7D7B   86 30      STX $30
7D7D   2E 30 81   ROL $8130
7D80   04         ???
7D81   22         ???
7D82   26 2A      ROL $2A
7D84   2C 2E 86   BIT $862E
7D87   30 83      BMI $7D0C
7D89   22         ???
7D8A   82         ???
7D8B   36 84      ROL $84,X
7D8D   34         ???
7D8E   85 04      STA $04
7D90   81 22      STA ($22,X)
7D92   86 3A      STX $3A
7D94   3A         ???
7D95   3A         ???
7D96   82         ???
7D97   3A         ???
7D98   81 40      STA ($40,X)
7D9A   82         ???
7D9B   04         ???
7D9C   81 3A      STA ($3A,X)
7D9E   86 36      STX $36
7DA0   36 36      ROL $36,X
7DA2   82         ???
7DA3   36 81      ROL $81,X
7DA5   3A         ???
7DA6   82         ???
7DA7   04         ???
7DA8   81 36      STA ($36,X)
7DAA   86 34      STX $34
7DAC   82         ???
7DAD   26 2A      ROL $2A
7DAF   36 81      ROL $81,X
7DB1   34         ???
7DB2   34         ???
7DB3   85 34      STA $34
7DB5   81 2A      STA ($2A,X)
7DB7   86 2C      STX $2C
7DB9   00         BRK
7DBA   84 90      STY $90
7DBC   B0 84      BCS $7D42
7DBE   50 50      BVC $7E10
7DC0   B0 00      BCS $7DC2
7DC2   98         TYA
7DC3   96 94      STX $94,Y
7DC5   92         ???
7DC6   94 96      STY $96,X
7DC8   58         CLI
7DC9   58         CLI
7DCA   58         CLI
7DCB   44         ???
7DCC   5C         ???
7DCD   44         ???
7DCE   9F         ???
7DCF   A3         ???
7DD0   A1 A3      LDA ($A3,X)
7DD2   85 A3      STA $A3
7DD4   E0 A6      CPX #$A6
7DD6   23         ???
7DD7   C4 9F      CPY $9F
7DD9   9D 9F 85   STA $859F,X
7DDC   9F         ???
7DDD   D2         ???
7DDE   A6 23      LDX $23
7DE0   C4 B5      CPY $B5
7DE2   B1 AF      LDA ($AF),Y
7DE4   85 B1      STA $B1
7DE6   AF         ???
7DE7   AD 85 95   LDA $9585
7DEA   9E         ???
7DEB   A2 AA      LDX #$AA
7DED   6A         ROR A
7DEE   6A         ROR A
7DEF   6B         ???
7DF0   5E 9D 84   LSR $849D,X
7DF3   04         ???
7DF4   04         ???
7DF5   82         ???
7DF6   22         ???
7DF7   86 22      STX $22
7DF9   82         ???
7DFA   14         ???
7DFB   22         ???
7DFC   2C 12 22   BIT $2212
7DFF   2A         ROL A
7E00   14         ???
7E01   22         ???
7E02   2C 1C 22   BIT $221C
7E05   2C 14 22   BIT $2214
7E08   2C 12 22   BIT $2212
7E0B   2A         ROL A
7E0C   14         ???
7E0D   22         ???
7E0E   2C 1C 22   BIT $221C
7E11   2C 18 22   BIT $2218
7E14   2A         ROL A
7E15   16 20      ASL $20,X
7E17   28         PLP
7E18   18         CLC
7E19   22         ???
7E1A   2A         ROL A
7E1B   12         ???
7E1C   22         ???
7E1D   2A         ROL A
7E1E   18         CLC
7E1F   22         ???
7E20   2A         ROL A
7E21   12         ???
7E22   22         ???
7E23   2A         ROL A
7E24   14         ???
7E25   22         ???
7E26   2C 0C 22   BIT $220C
7E29   2C 14 22   BIT $2214
7E2C   34         ???
7E2D   12         ???
7E2E   22         ???
7E2F   30 10      BMI $7E41
7E31   22         ???
7E32   2E 16 22   ROL $2216
7E35   34         ???
7E36   18         CLC
7E37   26 36      ROL $36
7E39   16 26      ASL $26,X
7E3B   36 14      ROL $14,X
7E3D   26 36      ROL $36
7E3F   12         ???
7E40   22         ???
7E41   36 5C      ROL $5C,X
7E43   22         ???
7E44   34         ???
7E45   0C         ???
7E46   22         ???
7E47   22         ???
7E48   81 1E      STA ($1E,X)
7E4A   1E 85 1E   ASL $1E85,X
7E4D   81 12      STA ($12,X)
7E4F   86 14      STX $14
7E51   81 2C      STA ($2C,X)
7E53   22         ???
7E54   1C         ???
7E55   2C 22 1C   BIT $1C22
7E58   85 2C      STA $2C
7E5A   04         ???
7E5B   81 2E      STA ($2E,X)
7E5D   24 1E      BIT $1E
7E5F   2E 24 1E   ROL $1E24
7E62   85 2E      STA $2E
7E64   04         ???
7E65   81 32      STA ($32,X)
7E67   28         PLP
7E68   22         ???
7E69   32         ???
7E6A   28         PLP
7E6B   22         ???
7E6C   85 32      STA $32
7E6E   87         ???
7E6F   36 36      ROL $36,X
7E71   36 84      ROL $84,X
7E73   3A         ???
7E74   00         BRK
7E75   5C         ???
7E76   54         ???
7E77   4C 5C 54   JMP $545C
7E7A   4C 5C 1C   JMP $1C5C
7E7D   1C         ???
7E7E   5C         ???
7E7F   5C         ???
7E80   5C         ???
7E81   5C         ???
7E82   5E 56 4E   LSR $4E56,X
7E85   5E 56 4E   LSR $4E56,X
7E88   5E 1E 1E   LSR $1E1E,X
7E8B   5E 5E 5E   LSR $5E5E,X
7E8E   5E 62 5A   LSR $5A62,X
7E91   50 62      BVC $7EF5
7E93   5A         ???
7E94   50 62      BVC $7EF8
7E96   22         ???
7E97   22         ???
7E98   62         ???
7E99   E7         ???
7E9A   E7         ???
7E9B   E7         ???
7E9C   2B         ???
7E9D   86 14      STX $14
7E9F   81 14      STA ($14,X)
7EA1   80         ???
7EA2   14         ???
7EA3   14         ???
7EA4   81 14      STA ($14,X)
7EA6   14         ???
7EA7   14         ???
7EA8   14         ???
7EA9   86 16      STX $16
7EAB   81 16      STA ($16,X)
7EAD   80         ???
7EAE   16 16      ASL $16,X
7EB0   81 16      STA ($16,X)
7EB2   16 16      ASL $16,X
7EB4   16 81      ASL $81,X
7EB6   28         PLP
7EB7   22         ???
7EB8   1A         ???
7EB9   28         PLP
7EBA   22         ???
7EBB   1A         ???
7EBC   28         PLP
7EBD   80         ???
7EBE   28         PLP
7EBF   28         PLP
7EC0   81 28      STA ($28,X)
7EC2   87         ???
7EC3   2C 2C 2C   BIT $2C2C
7EC6   84 30      STY $30
7EC8   83         ???
7EC9   04         ???
7ECA   84 0C      STY $0C
7ECC   83         ???
7ECD   62         ???
7ECE   10 84      BPL $7E54
7ED0   12         ???
7ED1   83         ???
7ED2   1C         ???
7ED3   22         ???
7ED4   1E 22 26   ASL $2622,X
7ED7   18         CLC
7ED8   1E 04 1C   ASL $1C04,X
7EDB   00         BRK
7EDC   E3         ???
7EDD   E1 E3      SBC ($E3,X)
7EDF   1D DE E0   ORA $E0DE,X
7EE2   23         ???
7EE3   EC 75 74   CPX $7475
7EE6   F0 F4      BEQ $7EDC
7EE8   F6 EA      INC $EA,X
7EEA   31 2D      AND ($2D),Y
7EEC   83         ???
7EED   12         ???
7EEE   14         ???
7EEF   04         ???
7EF0   18         CLC
7EF1   1A         ???
7EF2   1C         ???
7EF3   14         ???
7EF4   26 22      ROL $22
7EF6   1E 1C 18   ASL $181C,X
7EF9   1E 22 0C   ASL $0C22,X
7EFC   14         ???
7EFD   FF         ???
7EFE   FF         ???
7EFF   FF         ???
7F00   00         BRK
7F01   88         DEY
7F02   00         BRK
7F03   2F         ???
7F04   00         BRK
7F05   00         BRK
7F06   02         ???
7F07   A6 02      LDX $02
7F09   80         ???
7F0A   02         ???
7F0B   5C         ???
7F0C   02         ???
7F0D   3A         ???
7F0E   02         ???
7F0F   1A         ???
7F10   01 DF      ORA ($DF,X)
7F12   01 C4      ORA ($C4,X)
7F14   01 AB      ORA ($AB,X)
7F16   01 93      ORA ($93,X)
7F18   01 7C      ORA ($7C,X)
7F1A   01 67      ORA ($67,X)
7F1C   01 53      ORA ($53,X)
7F1E   01 40      ORA ($40,X)
7F20   01 2E      ORA ($2E,X)
7F22   01 1D      ORA ($1D,X)
7F24   01 0D      ORA ($0D,X)
7F26   00         BRK
7F27   FE 00 EF   INC $EF00,X
7F2A   00         BRK
7F2B   E2         ???
7F2C   00         BRK
7F2D   D5 00      CMP $00,X
7F2F   C9 00      CMP #$00
7F31   BE 00 B3   LDX $B300,Y
7F34   00         BRK
7F35   A9 00      LDA #$00
7F37   A0 00      LDY #$00
7F39   97         ???
7F3A   00         BRK
7F3B   8E 00 86   STX $8600
7F3E   00         BRK
7F3F   77         ???
7F40   00         BRK
7F41   7E 00 71   ROR $7100,X
7F44   00         BRK
7F45   54         ???
7F46   00         BRK
7F47   64         ???
7F48   00         BRK
7F49   5F         ???
7F4A   00         BRK
7F4B   59 00 50   EOR $5000,Y
7F4E   00         BRK
7F4F   47         ???
7F50   00         BRK
7F51   43         ???
7F52   00         BRK
7F53   3B         ???
7F54   00         BRK
7F55   35 00      AND $00,X
7F57   2A         ROL A
7F58   00         BRK
7F59   23         ???
7F5A   04         ???
7F5B   75 03      ADC $03,X
7F5D   57         ???
7F5E   02         ???
7F5F   F9 02 CF   SBC $CF02,Y
7F62   01 FC      ORA ($FC,X)
7F64   00         BRK
7F65   6A         ROR A
7F66   05 0A      ORA $0A
7F68   14         ???
7F69   28         PLP
7F6A   50 1E      BVC $7F8A
7F6C   3C         ???
7F6D   02         ???
7F6E   04         ???
7F6F   08         PHP
7F70   10 20      BPL $7F92
7F72   40         RTI
7F73   18         CLC
7F74   30 0C      BMI $7F82
7F76   03         ???
7F77   06 0C      ASL $0C
7F79   18         CLC
7F7A   30 12      BMI $7F8E
7F7C   24 08      BIT $08
7F7E   36 03      ROL $03,X
7F80   09 06      ORA #$06
7F82   12         ???
7F83   1B         ???
7F84   24 0C      BIT $0C
7F86   24 02      BIT $02
7F88   06 04      ASL $04
7F8A   0C         ???
7F8B   12         ???
7F8C   18         CLC
7F8D   08         PHP
7F8E   12         ???
7F8F   01 03      ORA ($03,X)
7F91   02         ???
7F92   06 09      ASL $09
7F94   0C         ???
7F95   04         ???
7F96   98         TYA
7F97   99 9A 9B   STA $9B9A,Y
7F9A   90 94      BCC $7F30
7F9C   94 95      STY $95,X
7F9E   95 96      STA $96,X
7FA0   97         ???
7FA1   98         TYA
7FA2   90 91      BCC $7F35
7FA4   92         ???
7FA5   92         ???
7FA6   93         ???
7FA7   93         ???
7FA8   93         ???
7FA9   94 94      STY $94,X
7FAB   94 94      STY $94,X
7FAD   94 94      STY $94,X
7FAF   95 95      STA $95,X
7FB1   95 95      STA $95,X
7FB3   95 95      STA $95,X
7FB5   96 96      STX $96,Y
7FB7   96 96      STX $96,Y
7FB9   96 96      STX $96,Y
7FBB   96 96      STX $96,Y
7FBD   96 96      STX $96,Y
7FBF   96 96      STX $96,Y
7FC1   96 96      STX $96,Y
7FC3   96 96      STX $96,Y
7FC5   96 95      STX $95,Y
7FC7   95 94      STA $94,X
7FC9   93         ???
7FCA   15 16      ORA $16,X
7FCC   16 17      ASL $17,X
7FCE   17         ???
7FCF   18         CLC
7FD0   19 19 1A   ORA $1A19,Y
7FD3   1A         ???
7FD4   1C         ???
7FD5   1D 1D 1E   ORA $1E1D,X
7FD8   1E 1F 1F   ASL $1F1F,X
7FDB   1F         ???
7FDC   1F         ???
7FDD   1E 1D 1C   ASL $1C1D,X
7FE0   1E 1F 1F   ASL $1F1F,X
7FE3   1E 1D 1C   ASL $1C1D,X
7FE6   1A         ???
7FE7   18         CLC
7FE8   16 14      ASL $14,X
7FEA   15 16      ORA $16,X
7FEC   16 17      ASL $17,X
7FEE   17         ???
7FEF   18         CLC
7FF0   19 19 1A   ORA $1A19,Y
7FF3   1A         ???
7FF4   1C         ???
7FF5   1D 1D 1E   ORA $1E1D,X
7FF8   1E 1F 82   ASL $821F,X
7FFB   80         ???
7FFC   00         BRK
7FFD   80         ???
7FFE   F0 FF      BEQ $7FFF